
bank:	file format Mach-O 64-bit x86-64


Disassembly of section __TEXT,__text:

0000000100003b20 __ZN7AccountC2Ei:
100003b20: 55                          	pushq	%rbp
100003b21: 48 89 e5                    	movq	%rsp, %rbp
100003b24: 48 83 ec 20                 	subq	$32, %rsp
100003b28: 48 89 7d f8                 	movq	%rdi, -8(%rbp)
100003b2c: 89 75 f4                    	movl	%esi, -12(%rbp)
100003b2f: 48 8b 45 f8                 	movq	-8(%rbp), %rax
100003b33: 8b 4d f4                    	movl	-12(%rbp), %ecx
100003b36: 89 48 04                    	movl	%ecx, 4(%rax)
100003b39: 8b 48 04                    	movl	4(%rax), %ecx
100003b3c: 03 0d 22 86 00 00           	addl	34338(%rip), %ecx
100003b42: 89 0d 1c 86 00 00           	movl	%ecx, 34332(%rip)
100003b48: 48 89 45 e8                 	movq	%rax, -24(%rbp)
100003b4c: e8 9f 00 00 00              	callq	159 <__ZN7Account13getNbAccountsEv>
100003b51: 48 8b 55 e8                 	movq	-24(%rbp), %rdx
100003b55: 89 02                       	movl	%eax, (%rdx)
100003b57: e8 a4 00 00 00              	callq	164 <__ZN7Account17_displayTimestampEv>
100003b5c: 48 8b 3d a5 44 00 00        	movq	17573(%rip), %rdi
100003b63: 48 8d 35 e6 41 00 00        	leaq	16870(%rip), %rsi
100003b6a: e8 75 3e 00 00              	callq	15989 <dyld_stub_binder+0x1000079e4>
100003b6f: 48 8b 55 e8                 	movq	-24(%rbp), %rdx
100003b73: 8b 32                       	movl	(%rdx), %esi
100003b75: 48 89 c7                    	movq	%rax, %rdi
100003b78: e8 25 3e 00 00              	callq	15909 <dyld_stub_binder+0x1000079a2>
100003b7d: 48 89 c7                    	movq	%rax, %rdi
100003b80: be 3b 00 00 00              	movl	$59, %esi
100003b85: e8 60 3e 00 00              	callq	15968 <dyld_stub_binder+0x1000079ea>
100003b8a: 48 89 c7                    	movq	%rax, %rdi
100003b8d: 48 8d 35 c4 41 00 00        	leaq	16836(%rip), %rsi
100003b94: e8 4b 3e 00 00              	callq	15947 <dyld_stub_binder+0x1000079e4>
100003b99: 48 8b 55 e8                 	movq	-24(%rbp), %rdx
100003b9d: 8b 72 04                    	movl	4(%rdx), %esi
100003ba0: 48 89 c7                    	movq	%rax, %rdi
100003ba3: e8 fa 3d 00 00              	callq	15866 <dyld_stub_binder+0x1000079a2>
100003ba8: 48 89 c7                    	movq	%rax, %rdi
100003bab: be 3b 00 00 00              	movl	$59, %esi
100003bb0: e8 35 3e 00 00              	callq	15925 <dyld_stub_binder+0x1000079ea>
100003bb5: 48 89 c7                    	movq	%rax, %rdi
100003bb8: 48 8d 35 a1 41 00 00        	leaq	16801(%rip), %rsi
100003bbf: e8 20 3e 00 00              	callq	15904 <dyld_stub_binder+0x1000079e4>
100003bc4: 48 89 c7                    	movq	%rax, %rdi
100003bc7: 48 8d 35 b2 01 00 00        	leaq	434(%rip), %rsi
100003bce: e8 8d 01 00 00              	callq	397 <__ZNSt3__113basic_ostreamIcNS_11char_traitsIcEEElsEPFRS3_S4_E>
100003bd3: 8b 0d 87 85 00 00           	movl	34183(%rip), %ecx
100003bd9: 83 c1 01                    	addl	$1, %ecx
100003bdc: 89 0d 7e 85 00 00           	movl	%ecx, 34174(%rip)
100003be2: 48 83 c4 20                 	addq	$32, %rsp
100003be6: 5d                          	popq	%rbp
100003be7: c3                          	retq
100003be8: 0f 1f 84 00 00 00 00 00     	nopl	(%rax,%rax)

0000000100003bf0 __ZN7Account13getNbAccountsEv:
100003bf0: 55                          	pushq	%rbp
100003bf1: 48 89 e5                    	movq	%rsp, %rbp
100003bf4: 8b 05 66 85 00 00           	movl	34150(%rip), %eax
100003bfa: 5d                          	popq	%rbp
100003bfb: c3                          	retq
100003bfc: 0f 1f 40 00                 	nopl	(%rax)

0000000100003c00 __ZN7Account17_displayTimestampEv:
100003c00: 55                          	pushq	%rbp
100003c01: 48 89 e5                    	movq	%rsp, %rbp
100003c04: 48 83 ec 60                 	subq	$96, %rsp
100003c08: 31 c0                       	xorl	%eax, %eax
100003c0a: 89 c7                       	movl	%eax, %edi
100003c0c: e8 2d 3e 00 00              	callq	15917 <dyld_stub_binder+0x100007a3e>
100003c11: 48 89 45 f8                 	movq	%rax, -8(%rbp)
100003c15: 48 8d 7d f8                 	leaq	-8(%rbp), %rdi
100003c19: 48 8d 75 c0                 	leaq	-64(%rbp), %rsi
100003c1d: e8 0a 3e 00 00              	callq	15882 <dyld_stub_binder+0x100007a2c>
100003c22: 48 8b 3d df 43 00 00        	movq	17375(%rip), %rdi
100003c29: 48 8d 35 3f 41 00 00        	leaq	16703(%rip), %rsi
100003c30: 48 89 45 b8                 	movq	%rax, -72(%rbp)
100003c34: e8 ab 3d 00 00              	callq	15787 <dyld_stub_binder+0x1000079e4>
100003c39: 48 8b 3d c8 43 00 00        	movq	17352(%rip), %rdi
100003c40: 8b 4d d4                    	movl	-44(%rbp), %ecx
100003c43: 81 c1 6c 07 00 00           	addl	$1900, %ecx
100003c49: 89 ce                       	movl	%ecx, %esi
100003c4b: 48 89 45 b0                 	movq	%rax, -80(%rbp)
100003c4f: e8 4e 3d 00 00              	callq	15694 <dyld_stub_binder+0x1000079a2>
100003c54: 31 ff                       	xorl	%edi, %edi
100003c56: 8b 4d d0                    	movl	-48(%rbp), %ecx
100003c59: 83 c1 01                    	addl	$1, %ecx
100003c5c: 89 ce                       	movl	%ecx, %esi
100003c5e: ba 0a 00 00 00              	movl	$10, %edx
100003c63: 48 89 45 a8                 	movq	%rax, -88(%rbp)
100003c67: e8 64 02 00 00              	callq	612 <__ZL11printf_timeiii>
100003c6c: 31 ff                       	xorl	%edi, %edi
100003c6e: 8b 75 cc                    	movl	-52(%rbp), %esi
100003c71: ba 0a 00 00 00              	movl	$10, %edx
100003c76: e8 55 02 00 00              	callq	597 <__ZL11printf_timeiii>
100003c7b: 48 8b 3d 86 43 00 00        	movq	17286(%rip), %rdi
100003c82: 48 8d 35 e8 40 00 00        	leaq	16616(%rip), %rsi
100003c89: e8 56 3d 00 00              	callq	15702 <dyld_stub_binder+0x1000079e4>
100003c8e: 31 ff                       	xorl	%edi, %edi
100003c90: 8b 75 c8                    	movl	-56(%rbp), %esi
100003c93: ba 0a 00 00 00              	movl	$10, %edx
100003c98: 48 89 45 a0                 	movq	%rax, -96(%rbp)
100003c9c: e8 2f 02 00 00              	callq	559 <__ZL11printf_timeiii>
100003ca1: 31 ff                       	xorl	%edi, %edi
100003ca3: 8b 75 c4                    	movl	-60(%rbp), %esi
100003ca6: ba 0a 00 00 00              	movl	$10, %edx
100003cab: e8 20 02 00 00              	callq	544 <__ZL11printf_timeiii>
100003cb0: 31 ff                       	xorl	%edi, %edi
100003cb2: 8b 75 c0                    	movl	-64(%rbp), %esi
100003cb5: ba 0a 00 00 00              	movl	$10, %edx
100003cba: e8 11 02 00 00              	callq	529 <__ZL11printf_timeiii>
100003cbf: 48 8b 3d 42 43 00 00        	movq	17218(%rip), %rdi
100003cc6: 48 8d 35 a6 40 00 00        	leaq	16550(%rip), %rsi
100003ccd: e8 12 3d 00 00              	callq	15634 <dyld_stub_binder+0x1000079e4>
100003cd2: 48 83 c4 60                 	addq	$96, %rsp
100003cd6: 5d                          	popq	%rbp
100003cd7: c3                          	retq
100003cd8: 0f 1f 84 00 00 00 00 00     	nopl	(%rax,%rax)

0000000100003ce0 __ZNSt3__1lsINS_11char_traitsIcEEEERNS_13basic_ostreamIcT_EES6_PKc:
100003ce0: 55                          	pushq	%rbp
100003ce1: 48 89 e5                    	movq	%rsp, %rbp
100003ce4: 48 83 ec 20                 	subq	$32, %rsp
100003ce8: 48 89 7d f8                 	movq	%rdi, -8(%rbp)
100003cec: 48 89 75 f0                 	movq	%rsi, -16(%rbp)
100003cf0: 48 8b 7d f8                 	movq	-8(%rbp), %rdi
100003cf4: 48 8b 75 f0                 	movq	-16(%rbp), %rsi
100003cf8: 48 8b 45 f0                 	movq	-16(%rbp), %rax
100003cfc: 48 89 7d e8                 	movq	%rdi, -24(%rbp)
100003d00: 48 89 c7                    	movq	%rax, %rdi
100003d03: 48 89 75 e0                 	movq	%rsi, -32(%rbp)
100003d07: e8 6c 3c 00 00              	callq	15468 <dyld_stub_binder+0x100007978>
100003d0c: 48 8b 7d e8                 	movq	-24(%rbp), %rdi
100003d10: 48 8b 75 e0                 	movq	-32(%rbp), %rsi
100003d14: 48 89 c2                    	movq	%rax, %rdx
100003d17: e8 98 3c 00 00              	callq	15512 <dyld_stub_binder+0x1000079b4>
100003d1c: 48 83 c4 20                 	addq	$32, %rsp
100003d20: 5d                          	popq	%rbp
100003d21: c3                          	retq
100003d22: 66 2e 0f 1f 84 00 00 00 00 00       	nopw	%cs:(%rax,%rax)
100003d2c: 0f 1f 40 00                 	nopl	(%rax)

0000000100003d30 __ZNSt3__1lsINS_11char_traitsIcEEEERNS_13basic_ostreamIcT_EES6_c:
100003d30: 55                          	pushq	%rbp
100003d31: 48 89 e5                    	movq	%rsp, %rbp
100003d34: 48 83 ec 10                 	subq	$16, %rsp
100003d38: 48 89 7d f8                 	movq	%rdi, -8(%rbp)
100003d3c: 40 88 75 f7                 	movb	%sil, -9(%rbp)
100003d40: 48 8b 7d f8                 	movq	-8(%rbp), %rdi
100003d44: 48 8d 75 f7                 	leaq	-9(%rbp), %rsi
100003d48: ba 01 00 00 00              	movl	$1, %edx
100003d4d: e8 62 3c 00 00              	callq	15458 <dyld_stub_binder+0x1000079b4>
100003d52: 48 83 c4 10                 	addq	$16, %rsp
100003d56: 5d                          	popq	%rbp
100003d57: c3                          	retq
100003d58: 0f 1f 84 00 00 00 00 00     	nopl	(%rax,%rax)

0000000100003d60 __ZNSt3__113basic_ostreamIcNS_11char_traitsIcEEElsEPFRS3_S4_E:
100003d60: 55                          	pushq	%rbp
100003d61: 48 89 e5                    	movq	%rsp, %rbp
100003d64: 48 83 ec 10                 	subq	$16, %rsp
100003d68: 48 89 7d f8                 	movq	%rdi, -8(%rbp)
100003d6c: 48 89 75 f0                 	movq	%rsi, -16(%rbp)
100003d70: 48 8b 7d f8                 	movq	-8(%rbp), %rdi
100003d74: ff 55 f0                    	callq	*-16(%rbp)
100003d77: 48 83 c4 10                 	addq	$16, %rsp
100003d7b: 5d                          	popq	%rbp
100003d7c: c3                          	retq
100003d7d: 0f 1f 00                    	nopl	(%rax)

0000000100003d80 __ZNSt3__1L4endlIcNS_11char_traitsIcEEEERNS_13basic_ostreamIT_T0_EES7_:
100003d80: 55                          	pushq	%rbp
100003d81: 48 89 e5                    	movq	%rsp, %rbp
100003d84: 48 83 ec 20                 	subq	$32, %rsp
100003d88: 48 89 7d f8                 	movq	%rdi, -8(%rbp)
100003d8c: 48 8b 7d f8                 	movq	-8(%rbp), %rdi
100003d90: 48 8b 45 f8                 	movq	-8(%rbp), %rax
100003d94: 48 8b 08                    	movq	(%rax), %rcx
100003d97: 48 8b 49 e8                 	movq	-24(%rcx), %rcx
100003d9b: 48 01 c8                    	addq	%rcx, %rax
100003d9e: 48 89 7d f0                 	movq	%rdi, -16(%rbp)
100003da2: 48 89 c7                    	movq	%rax, %rdi
100003da5: be 0a 00 00 00              	movl	$10, %esi
100003daa: e8 a1 11 00 00              	callq	4513 <__ZNKSt3__19basic_iosIcNS_11char_traitsIcEEE5widenEc>
100003daf: 48 8b 7d f0                 	movq	-16(%rbp), %rdi
100003db3: 0f be f0                    	movsbl	%al, %esi
100003db6: e8 cf 3b 00 00              	callq	15311 <dyld_stub_binder+0x10000798a>
100003dbb: 48 8b 7d f8                 	movq	-8(%rbp), %rdi
100003dbf: 48 89 45 e8                 	movq	%rax, -24(%rbp)
100003dc3: e8 c8 3b 00 00              	callq	15304 <dyld_stub_binder+0x100007990>
100003dc8: 48 8b 4d f8                 	movq	-8(%rbp), %rcx
100003dcc: 48 89 45 e0                 	movq	%rax, -32(%rbp)
100003dd0: 48 89 c8                    	movq	%rcx, %rax
100003dd3: 48 83 c4 20                 	addq	$32, %rsp
100003dd7: 5d                          	popq	%rbp
100003dd8: c3                          	retq
100003dd9: 0f 1f 80 00 00 00 00        	nopl	(%rax)

0000000100003de0 __ZN7AccountC1Ei:
100003de0: 55                          	pushq	%rbp
100003de1: 48 89 e5                    	movq	%rsp, %rbp
100003de4: 48 83 ec 10                 	subq	$16, %rsp
100003de8: 48 89 7d f8                 	movq	%rdi, -8(%rbp)
100003dec: 89 75 f4                    	movl	%esi, -12(%rbp)
100003def: 48 8b 7d f8                 	movq	-8(%rbp), %rdi
100003df3: 8b 75 f4                    	movl	-12(%rbp), %esi
100003df6: e8 25 fd ff ff              	callq	-731 <__ZN7AccountC2Ei>
100003dfb: 48 83 c4 10                 	addq	$16, %rsp
100003dff: 5d                          	popq	%rbp
100003e00: c3                          	retq
100003e01: 66 2e 0f 1f 84 00 00 00 00 00       	nopw	%cs:(%rax,%rax)
100003e0b: 0f 1f 44 00 00              	nopl	(%rax,%rax)

0000000100003e10 __ZN7AccountD2Ev:
100003e10: 55                          	pushq	%rbp
100003e11: 48 89 e5                    	movq	%rsp, %rbp
100003e14: 48 83 ec 10                 	subq	$16, %rsp
100003e18: 48 89 7d f8                 	movq	%rdi, -8(%rbp)
100003e1c: 48 8b 45 f8                 	movq	-8(%rbp), %rax
100003e20: 48 89 45 f0                 	movq	%rax, -16(%rbp)
100003e24: e8 d7 fd ff ff              	callq	-553 <__ZN7Account17_displayTimestampEv>
100003e29: 48 8b 3d d8 41 00 00        	movq	16856(%rip), %rdi
100003e30: 48 8d 35 19 3f 00 00        	leaq	16153(%rip), %rsi
100003e37: e8 a8 3b 00 00              	callq	15272 <dyld_stub_binder+0x1000079e4>
100003e3c: 48 8b 4d f0                 	movq	-16(%rbp), %rcx
100003e40: 8b 31                       	movl	(%rcx), %esi
100003e42: 48 89 c7                    	movq	%rax, %rdi
100003e45: e8 58 3b 00 00              	callq	15192 <dyld_stub_binder+0x1000079a2>
100003e4a: 48 89 c7                    	movq	%rax, %rdi
100003e4d: be 3b 00 00 00              	movl	$59, %esi
100003e52: e8 93 3b 00 00              	callq	15251 <dyld_stub_binder+0x1000079ea>
100003e57: 48 89 c7                    	movq	%rax, %rdi
100003e5a: 48 8d 35 f7 3e 00 00        	leaq	16119(%rip), %rsi
100003e61: e8 7e 3b 00 00              	callq	15230 <dyld_stub_binder+0x1000079e4>
100003e66: 48 8b 4d f0                 	movq	-16(%rbp), %rcx
100003e6a: 8b 71 04                    	movl	4(%rcx), %esi
100003e6d: 48 89 c7                    	movq	%rax, %rdi
100003e70: e8 2d 3b 00 00              	callq	15149 <dyld_stub_binder+0x1000079a2>
100003e75: 48 89 c7                    	movq	%rax, %rdi
100003e78: be 3b 00 00 00              	movl	$59, %esi
100003e7d: e8 68 3b 00 00              	callq	15208 <dyld_stub_binder+0x1000079ea>
100003e82: 48 89 c7                    	movq	%rax, %rdi
100003e85: 48 8d 35 dc 3e 00 00        	leaq	16092(%rip), %rsi
100003e8c: e8 53 3b 00 00              	callq	15187 <dyld_stub_binder+0x1000079e4>
100003e91: 48 89 c7                    	movq	%rax, %rdi
100003e94: 48 8d 35 e5 fe ff ff        	leaq	-283(%rip), %rsi
100003e9b: e8 c0 fe ff ff              	callq	-320 <__ZNSt3__113basic_ostreamIcNS_11char_traitsIcEEElsEPFRS3_S4_E>
100003ea0: 48 83 c4 10                 	addq	$16, %rsp
100003ea4: 5d                          	popq	%rbp
100003ea5: c3                          	retq
100003ea6: 66 2e 0f 1f 84 00 00 00 00 00       	nopw	%cs:(%rax,%rax)

0000000100003eb0 __ZN7AccountD1Ev:
100003eb0: 55                          	pushq	%rbp
100003eb1: 48 89 e5                    	movq	%rsp, %rbp
100003eb4: 48 83 ec 10                 	subq	$16, %rsp
100003eb8: 48 89 7d f8                 	movq	%rdi, -8(%rbp)
100003ebc: 48 8b 7d f8                 	movq	-8(%rbp), %rdi
100003ec0: e8 4b ff ff ff              	callq	-181 <__ZN7AccountD2Ev>
100003ec5: 48 83 c4 10                 	addq	$16, %rsp
100003ec9: 5d                          	popq	%rbp
100003eca: c3                          	retq
100003ecb: 0f 1f 44 00 00              	nopl	(%rax,%rax)

0000000100003ed0 __ZL11printf_timeiii:
100003ed0: 55                          	pushq	%rbp
100003ed1: 48 89 e5                    	movq	%rsp, %rbp
100003ed4: 48 83 ec 10                 	subq	$16, %rsp
100003ed8: 89 7d fc                    	movl	%edi, -4(%rbp)
100003edb: 89 75 f8                    	movl	%esi, -8(%rbp)
100003ede: 89 55 f4                    	movl	%edx, -12(%rbp)
100003ee1: 8b 45 f8                    	movl	-8(%rbp), %eax
100003ee4: 3b 45 f4                    	cmpl	-12(%rbp), %eax
100003ee7: 0f 8f 0f 00 00 00           	jg	15 <__ZL11printf_timeiii+0x2c>
100003eed: 48 8b 3d 14 41 00 00        	movq	16660(%rip), %rdi
100003ef4: 8b 75 fc                    	movl	-4(%rbp), %esi
100003ef7: e8 a6 3a 00 00              	callq	15014 <dyld_stub_binder+0x1000079a2>
100003efc: 48 8b 3d 05 41 00 00        	movq	16645(%rip), %rdi
100003f03: 8b 75 f8                    	movl	-8(%rbp), %esi
100003f06: e8 97 3a 00 00              	callq	14999 <dyld_stub_binder+0x1000079a2>
100003f0b: 48 83 c4 10                 	addq	$16, %rsp
100003f0f: 5d                          	popq	%rbp
100003f10: c3                          	retq
100003f11: 66 2e 0f 1f 84 00 00 00 00 00       	nopw	%cs:(%rax,%rax)
100003f1b: 0f 1f 44 00 00              	nopl	(%rax,%rax)

0000000100003f20 __ZN7Account14getTotalAmountEv:
100003f20: 55                          	pushq	%rbp
100003f21: 48 89 e5                    	movq	%rsp, %rbp
100003f24: 8b 05 3a 82 00 00           	movl	33338(%rip), %eax
100003f2a: 5d                          	popq	%rbp
100003f2b: c3                          	retq
100003f2c: 0f 1f 40 00                 	nopl	(%rax)

0000000100003f30 __ZN7Account13getNbDepositsEv:
100003f30: 55                          	pushq	%rbp
100003f31: 48 89 e5                    	movq	%rsp, %rbp
100003f34: 8b 05 2e 82 00 00           	movl	33326(%rip), %eax
100003f3a: 5d                          	popq	%rbp
100003f3b: c3                          	retq
100003f3c: 0f 1f 40 00                 	nopl	(%rax)

0000000100003f40 __ZN7Account16getNbWithdrawalsEv:
100003f40: 55                          	pushq	%rbp
100003f41: 48 89 e5                    	movq	%rsp, %rbp
100003f44: 8b 05 22 82 00 00           	movl	33314(%rip), %eax
100003f4a: 5d                          	popq	%rbp
100003f4b: c3                          	retq
100003f4c: 0f 1f 40 00                 	nopl	(%rax)

0000000100003f50 __ZN7Account20displayAccountsInfosEv:
100003f50: 55                          	pushq	%rbp
100003f51: 48 89 e5                    	movq	%rsp, %rbp
100003f54: 48 83 ec 20                 	subq	$32, %rsp
100003f58: e8 a3 fc ff ff              	callq	-861 <__ZN7Account17_displayTimestampEv>
100003f5d: 48 8b 3d a4 40 00 00        	movq	16548(%rip), %rdi
100003f64: 48 8d 35 0a 3e 00 00        	leaq	15882(%rip), %rsi
100003f6b: e8 74 3a 00 00              	callq	14964 <dyld_stub_binder+0x1000079e4>
100003f70: 8b 35 ea 81 00 00           	movl	33258(%rip), %esi
100003f76: 48 89 c7                    	movq	%rax, %rdi
100003f79: e8 24 3a 00 00              	callq	14884 <dyld_stub_binder+0x1000079a2>
100003f7e: 48 89 c7                    	movq	%rax, %rdi
100003f81: be 3b 00 00 00              	movl	$59, %esi
100003f86: e8 5f 3a 00 00              	callq	14943 <dyld_stub_binder+0x1000079ea>
100003f8b: 48 89 c7                    	movq	%rax, %rdi
100003f8e: 48 8d 35 eb 3d 00 00        	leaq	15851(%rip), %rsi
100003f95: e8 4a 3a 00 00              	callq	14922 <dyld_stub_binder+0x1000079e4>
100003f9a: 48 89 45 f8                 	movq	%rax, -8(%rbp)
100003f9e: e8 7d ff ff ff              	callq	-131 <__ZN7Account14getTotalAmountEv>
100003fa3: 48 8b 7d f8                 	movq	-8(%rbp), %rdi
100003fa7: 89 c6                       	movl	%eax, %esi
100003fa9: e8 f4 39 00 00              	callq	14836 <dyld_stub_binder+0x1000079a2>
100003fae: 48 89 c7                    	movq	%rax, %rdi
100003fb1: be 3b 00 00 00              	movl	$59, %esi
100003fb6: e8 2f 3a 00 00              	callq	14895 <dyld_stub_binder+0x1000079ea>
100003fbb: 48 89 c7                    	movq	%rax, %rdi
100003fbe: 48 8d 35 c2 3d 00 00        	leaq	15810(%rip), %rsi
100003fc5: e8 1a 3a 00 00              	callq	14874 <dyld_stub_binder+0x1000079e4>
100003fca: 48 89 45 f0                 	movq	%rax, -16(%rbp)
100003fce: e8 5d ff ff ff              	callq	-163 <__ZN7Account13getNbDepositsEv>
100003fd3: 48 8b 7d f0                 	movq	-16(%rbp), %rdi
100003fd7: 89 c6                       	movl	%eax, %esi
100003fd9: e8 c4 39 00 00              	callq	14788 <dyld_stub_binder+0x1000079a2>
100003fde: 48 89 c7                    	movq	%rax, %rdi
100003fe1: be 3b 00 00 00              	movl	$59, %esi
100003fe6: e8 ff 39 00 00              	callq	14847 <dyld_stub_binder+0x1000079ea>
100003feb: 48 89 c7                    	movq	%rax, %rdi
100003fee: 48 8d 35 9c 3d 00 00        	leaq	15772(%rip), %rsi
100003ff5: e8 ea 39 00 00              	callq	14826 <dyld_stub_binder+0x1000079e4>
100003ffa: 48 89 45 e8                 	movq	%rax, -24(%rbp)
100003ffe: e8 3d ff ff ff              	callq	-195 <__ZN7Account16getNbWithdrawalsEv>
100004003: 48 8b 7d e8                 	movq	-24(%rbp), %rdi
100004007: 89 c6                       	movl	%eax, %esi
100004009: e8 94 39 00 00              	callq	14740 <dyld_stub_binder+0x1000079a2>
10000400e: 48 89 c7                    	movq	%rax, %rdi
100004011: 48 8d 35 68 fd ff ff        	leaq	-664(%rip), %rsi
100004018: e8 43 fd ff ff              	callq	-701 <__ZNSt3__113basic_ostreamIcNS_11char_traitsIcEEElsEPFRS3_S4_E>
10000401d: 48 83 c4 20                 	addq	$32, %rsp
100004021: 5d                          	popq	%rbp
100004022: c3                          	retq
100004023: 66 2e 0f 1f 84 00 00 00 00 00       	nopw	%cs:(%rax,%rax)
10000402d: 0f 1f 00                    	nopl	(%rax)

0000000100004030 __ZN7Account11makeDepositEi:
100004030: 55                          	pushq	%rbp
100004031: 48 89 e5                    	movq	%rsp, %rbp
100004034: 48 83 ec 20                 	subq	$32, %rsp
100004038: 48 89 7d f8                 	movq	%rdi, -8(%rbp)
10000403c: 89 75 f4                    	movl	%esi, -12(%rbp)
10000403f: 48 8b 45 f8                 	movq	-8(%rbp), %rax
100004043: 8b 48 08                    	movl	8(%rax), %ecx
100004046: 83 c1 01                    	addl	$1, %ecx
100004049: 89 48 08                    	movl	%ecx, 8(%rax)
10000404c: 8b 0d 16 81 00 00           	movl	33046(%rip), %ecx
100004052: 83 c1 01                    	addl	$1, %ecx
100004055: 89 0d 0d 81 00 00           	movl	%ecx, 33037(%rip)
10000405b: 8b 4d f4                    	movl	-12(%rbp), %ecx
10000405e: 03 0d 00 81 00 00           	addl	33024(%rip), %ecx
100004064: 89 0d fa 80 00 00           	movl	%ecx, 33018(%rip)
10000406a: 48 89 45 e8                 	movq	%rax, -24(%rbp)
10000406e: e8 8d fb ff ff              	callq	-1139 <__ZN7Account17_displayTimestampEv>
100004073: 48 8b 3d 8e 3f 00 00        	movq	16270(%rip), %rdi
10000407a: 48 8d 35 cf 3c 00 00        	leaq	15567(%rip), %rsi
100004081: e8 5e 39 00 00              	callq	14686 <dyld_stub_binder+0x1000079e4>
100004086: 48 8b 55 e8                 	movq	-24(%rbp), %rdx
10000408a: 8b 32                       	movl	(%rdx), %esi
10000408c: 48 89 c7                    	movq	%rax, %rdi
10000408f: e8 0e 39 00 00              	callq	14606 <dyld_stub_binder+0x1000079a2>
100004094: 48 89 c7                    	movq	%rax, %rdi
100004097: be 3b 00 00 00              	movl	$59, %esi
10000409c: e8 49 39 00 00              	callq	14665 <dyld_stub_binder+0x1000079ea>
1000040a1: 48 89 c7                    	movq	%rax, %rdi
1000040a4: 48 8d 35 f3 3c 00 00        	leaq	15603(%rip), %rsi
1000040ab: e8 34 39 00 00              	callq	14644 <dyld_stub_binder+0x1000079e4>
1000040b0: 48 8b 55 e8                 	movq	-24(%rbp), %rdx
1000040b4: 8b 72 04                    	movl	4(%rdx), %esi
1000040b7: 48 89 c7                    	movq	%rax, %rdi
1000040ba: e8 e3 38 00 00              	callq	14563 <dyld_stub_binder+0x1000079a2>
1000040bf: 48 89 c7                    	movq	%rax, %rdi
1000040c2: be 3b 00 00 00              	movl	$59, %esi
1000040c7: e8 1e 39 00 00              	callq	14622 <dyld_stub_binder+0x1000079ea>
1000040cc: 48 89 c7                    	movq	%rax, %rdi
1000040cf: 48 8d 35 d2 3c 00 00        	leaq	15570(%rip), %rsi
1000040d6: e8 09 39 00 00              	callq	14601 <dyld_stub_binder+0x1000079e4>
1000040db: 8b 75 f4                    	movl	-12(%rbp), %esi
1000040de: 48 89 c7                    	movq	%rax, %rdi
1000040e1: e8 bc 38 00 00              	callq	14524 <dyld_stub_binder+0x1000079a2>
1000040e6: 48 89 c7                    	movq	%rax, %rdi
1000040e9: be 3b 00 00 00              	movl	$59, %esi
1000040ee: e8 f7 38 00 00              	callq	14583 <dyld_stub_binder+0x1000079ea>
1000040f3: 48 8b 3d 0e 3f 00 00        	movq	16142(%rip), %rdi
1000040fa: 8b 4d f4                    	movl	-12(%rbp), %ecx
1000040fd: 48 8b 55 e8                 	movq	-24(%rbp), %rdx
100004101: 03 4a 04                    	addl	4(%rdx), %ecx
100004104: 89 4a 04                    	movl	%ecx, 4(%rdx)
100004107: 48 8d 35 4a 3c 00 00        	leaq	15434(%rip), %rsi
10000410e: 48 89 45 e0                 	movq	%rax, -32(%rbp)
100004112: e8 cd 38 00 00              	callq	14541 <dyld_stub_binder+0x1000079e4>
100004117: 48 8b 55 e8                 	movq	-24(%rbp), %rdx
10000411b: 8b 72 04                    	movl	4(%rdx), %esi
10000411e: 48 89 c7                    	movq	%rax, %rdi
100004121: e8 7c 38 00 00              	callq	14460 <dyld_stub_binder+0x1000079a2>
100004126: 48 89 c7                    	movq	%rax, %rdi
100004129: be 3b 00 00 00              	movl	$59, %esi
10000412e: e8 b7 38 00 00              	callq	14519 <dyld_stub_binder+0x1000079ea>
100004133: 48 89 c7                    	movq	%rax, %rdi
100004136: 48 8d 35 74 3c 00 00        	leaq	15476(%rip), %rsi
10000413d: e8 a2 38 00 00              	callq	14498 <dyld_stub_binder+0x1000079e4>
100004142: 48 8b 55 e8                 	movq	-24(%rbp), %rdx
100004146: 8b 72 08                    	movl	8(%rdx), %esi
100004149: 48 89 c7                    	movq	%rax, %rdi
10000414c: e8 51 38 00 00              	callq	14417 <dyld_stub_binder+0x1000079a2>
100004151: 48 89 c7                    	movq	%rax, %rdi
100004154: 48 8d 35 25 fc ff ff        	leaq	-987(%rip), %rsi
10000415b: e8 00 fc ff ff              	callq	-1024 <__ZNSt3__113basic_ostreamIcNS_11char_traitsIcEEElsEPFRS3_S4_E>
100004160: 48 83 c4 20                 	addq	$32, %rsp
100004164: 5d                          	popq	%rbp
100004165: c3                          	retq
100004166: 66 2e 0f 1f 84 00 00 00 00 00       	nopw	%cs:(%rax,%rax)

0000000100004170 __ZN7Account14makeWithdrawalEi:
100004170: 55                          	pushq	%rbp
100004171: 48 89 e5                    	movq	%rsp, %rbp
100004174: 48 83 ec 30                 	subq	$48, %rsp
100004178: 48 89 7d f0                 	movq	%rdi, -16(%rbp)
10000417c: 89 75 ec                    	movl	%esi, -20(%rbp)
10000417f: 48 8b 45 f0                 	movq	-16(%rbp), %rax
100004183: 48 89 45 e0                 	movq	%rax, -32(%rbp)
100004187: e8 74 fa ff ff              	callq	-1420 <__ZN7Account17_displayTimestampEv>
10000418c: 48 8b 45 e0                 	movq	-32(%rbp), %rax
100004190: 8b 48 04                    	movl	4(%rax), %ecx
100004193: 3b 4d ec                    	cmpl	-20(%rbp), %ecx
100004196: 0f 8c 0a 00 00 00           	jl	10 <__ZN7Account14makeWithdrawalEi+0x36>
10000419c: 83 7d ec 00                 	cmpl	$0, -20(%rbp)
1000041a0: 0f 8f 80 00 00 00           	jg	128 <__ZN7Account14makeWithdrawalEi+0xb6>
1000041a6: 48 8b 3d 5b 3e 00 00        	movq	15963(%rip), %rdi
1000041ad: 48 8d 35 9c 3b 00 00        	leaq	15260(%rip), %rsi
1000041b4: e8 2b 38 00 00              	callq	14379 <dyld_stub_binder+0x1000079e4>
1000041b9: 48 8b 4d e0                 	movq	-32(%rbp), %rcx
1000041bd: 8b 31                       	movl	(%rcx), %esi
1000041bf: 48 89 c7                    	movq	%rax, %rdi
1000041c2: e8 db 37 00 00              	callq	14299 <dyld_stub_binder+0x1000079a2>
1000041c7: 48 89 c7                    	movq	%rax, %rdi
1000041ca: be 3b 00 00 00              	movl	$59, %esi
1000041cf: e8 16 38 00 00              	callq	14358 <dyld_stub_binder+0x1000079ea>
1000041d4: 48 89 c7                    	movq	%rax, %rdi
1000041d7: 48 8d 35 c0 3b 00 00        	leaq	15296(%rip), %rsi
1000041de: e8 01 38 00 00              	callq	14337 <dyld_stub_binder+0x1000079e4>
1000041e3: 48 8b 4d e0                 	movq	-32(%rbp), %rcx
1000041e7: 8b 71 04                    	movl	4(%rcx), %esi
1000041ea: 48 89 c7                    	movq	%rax, %rdi
1000041ed: e8 b0 37 00 00              	callq	14256 <dyld_stub_binder+0x1000079a2>
1000041f2: 48 89 c7                    	movq	%rax, %rdi
1000041f5: be 3b 00 00 00              	movl	$59, %esi
1000041fa: e8 eb 37 00 00              	callq	14315 <dyld_stub_binder+0x1000079ea>
1000041ff: 48 89 c7                    	movq	%rax, %rdi
100004202: 48 8d 35 b5 3b 00 00        	leaq	15285(%rip), %rsi
100004209: e8 d6 37 00 00              	callq	14294 <dyld_stub_binder+0x1000079e4>
10000420e: 48 89 c7                    	movq	%rax, %rdi
100004211: 48 8d 35 68 fb ff ff        	leaq	-1176(%rip), %rsi
100004218: e8 43 fb ff ff              	callq	-1213 <__ZNSt3__113basic_ostreamIcNS_11char_traitsIcEEElsEPFRS3_S4_E>
10000421d: c6 45 ff 00                 	movb	$0, -1(%rbp)
100004221: e9 20 01 00 00              	jmp	288 <__ZN7Account14makeWithdrawalEi+0x1d6>
100004226: 48 8b 3d db 3d 00 00        	movq	15835(%rip), %rdi
10000422d: 48 8b 45 e0                 	movq	-32(%rbp), %rax
100004231: 8b 48 0c                    	movl	12(%rax), %ecx
100004234: 83 c1 01                    	addl	$1, %ecx
100004237: 89 48 0c                    	movl	%ecx, 12(%rax)
10000423a: 8b 0d 2c 7f 00 00           	movl	32556(%rip), %ecx
100004240: 83 c1 01                    	addl	$1, %ecx
100004243: 89 0d 23 7f 00 00           	movl	%ecx, 32547(%rip)
100004249: 48 8d 35 00 3b 00 00        	leaq	15104(%rip), %rsi
100004250: e8 8f 37 00 00              	callq	14223 <dyld_stub_binder+0x1000079e4>
100004255: 48 8b 55 e0                 	movq	-32(%rbp), %rdx
100004259: 8b 32                       	movl	(%rdx), %esi
10000425b: 48 89 c7                    	movq	%rax, %rdi
10000425e: e8 3f 37 00 00              	callq	14143 <dyld_stub_binder+0x1000079a2>
100004263: 48 89 c7                    	movq	%rax, %rdi
100004266: be 3b 00 00 00              	movl	$59, %esi
10000426b: e8 7a 37 00 00              	callq	14202 <dyld_stub_binder+0x1000079ea>
100004270: 48 89 c7                    	movq	%rax, %rdi
100004273: 48 8d 35 24 3b 00 00        	leaq	15140(%rip), %rsi
10000427a: e8 65 37 00 00              	callq	14181 <dyld_stub_binder+0x1000079e4>
10000427f: 48 8b 55 e0                 	movq	-32(%rbp), %rdx
100004283: 8b 72 04                    	movl	4(%rdx), %esi
100004286: 48 89 c7                    	movq	%rax, %rdi
100004289: e8 14 37 00 00              	callq	14100 <dyld_stub_binder+0x1000079a2>
10000428e: 48 89 c7                    	movq	%rax, %rdi
100004291: be 3b 00 00 00              	movl	$59, %esi
100004296: e8 4f 37 00 00              	callq	14159 <dyld_stub_binder+0x1000079ea>
10000429b: 48 89 c7                    	movq	%rax, %rdi
10000429e: 48 8d 35 2c 3b 00 00        	leaq	15148(%rip), %rsi
1000042a5: e8 3a 37 00 00              	callq	14138 <dyld_stub_binder+0x1000079e4>
1000042aa: 8b 75 ec                    	movl	-20(%rbp), %esi
1000042ad: 48 89 c7                    	movq	%rax, %rdi
1000042b0: e8 ed 36 00 00              	callq	14061 <dyld_stub_binder+0x1000079a2>
1000042b5: 48 89 c7                    	movq	%rax, %rdi
1000042b8: be 3b 00 00 00              	movl	$59, %esi
1000042bd: e8 28 37 00 00              	callq	14120 <dyld_stub_binder+0x1000079ea>
1000042c2: 48 8b 3d 3f 3d 00 00        	movq	15679(%rip), %rdi
1000042c9: 8b 4d ec                    	movl	-20(%rbp), %ecx
1000042cc: 48 8b 55 e0                 	movq	-32(%rbp), %rdx
1000042d0: 8b 72 04                    	movl	4(%rdx), %esi
1000042d3: 29 ce                       	subl	%ecx, %esi
1000042d5: 89 72 04                    	movl	%esi, 4(%rdx)
1000042d8: 8b 4d ec                    	movl	-20(%rbp), %ecx
1000042db: 8b 35 83 7e 00 00           	movl	32387(%rip), %esi
1000042e1: 29 ce                       	subl	%ecx, %esi
1000042e3: 89 35 7b 7e 00 00           	movl	%esi, 32379(%rip)
1000042e9: 48 8d 35 68 3a 00 00        	leaq	14952(%rip), %rsi
1000042f0: 48 89 45 d8                 	movq	%rax, -40(%rbp)
1000042f4: e8 eb 36 00 00              	callq	14059 <dyld_stub_binder+0x1000079e4>
1000042f9: 48 8b 55 e0                 	movq	-32(%rbp), %rdx
1000042fd: 8b 72 04                    	movl	4(%rdx), %esi
100004300: 48 89 c7                    	movq	%rax, %rdi
100004303: e8 9a 36 00 00              	callq	13978 <dyld_stub_binder+0x1000079a2>
100004308: 48 89 c7                    	movq	%rax, %rdi
10000430b: be 3b 00 00 00              	movl	$59, %esi
100004310: e8 d5 36 00 00              	callq	14037 <dyld_stub_binder+0x1000079ea>
100004315: 48 89 c7                    	movq	%rax, %rdi
100004318: 48 8d 35 be 3a 00 00        	leaq	15038(%rip), %rsi
10000431f: e8 c0 36 00 00              	callq	14016 <dyld_stub_binder+0x1000079e4>
100004324: 48 8b 55 e0                 	movq	-32(%rbp), %rdx
100004328: 8b 72 0c                    	movl	12(%rdx), %esi
10000432b: 48 89 c7                    	movq	%rax, %rdi
10000432e: e8 6f 36 00 00              	callq	13935 <dyld_stub_binder+0x1000079a2>
100004333: 48 89 c7                    	movq	%rax, %rdi
100004336: 48 8d 35 43 fa ff ff        	leaq	-1469(%rip), %rsi
10000433d: e8 1e fa ff ff              	callq	-1506 <__ZNSt3__113basic_ostreamIcNS_11char_traitsIcEEElsEPFRS3_S4_E>
100004342: c6 45 ff 01                 	movb	$1, -1(%rbp)
100004346: 8a 45 ff                    	movb	-1(%rbp), %al
100004349: 24 01                       	andb	$1, %al
10000434b: 0f b6 c0                    	movzbl	%al, %eax
10000434e: 48 83 c4 30                 	addq	$48, %rsp
100004352: 5d                          	popq	%rbp
100004353: c3                          	retq
100004354: 66 2e 0f 1f 84 00 00 00 00 00       	nopw	%cs:(%rax,%rax)
10000435e: 66 90                       	nop

0000000100004360 __ZNK7Account11checkAmountEv:
100004360: 55                          	pushq	%rbp
100004361: 48 89 e5                    	movq	%rsp, %rbp
100004364: 48 89 7d f8                 	movq	%rdi, -8(%rbp)
100004368: 48 8b 45 f8                 	movq	-8(%rbp), %rax
10000436c: 8b 40 04                    	movl	4(%rax), %eax
10000436f: 5d                          	popq	%rbp
100004370: c3                          	retq
100004371: 66 2e 0f 1f 84 00 00 00 00 00       	nopw	%cs:(%rax,%rax)
10000437b: 0f 1f 44 00 00              	nopl	(%rax,%rax)

0000000100004380 __ZNK7Account13displayStatusEv:
100004380: 55                          	pushq	%rbp
100004381: 48 89 e5                    	movq	%rsp, %rbp
100004384: 48 83 ec 10                 	subq	$16, %rsp
100004388: 48 89 7d f8                 	movq	%rdi, -8(%rbp)
10000438c: 48 8b 45 f8                 	movq	-8(%rbp), %rax
100004390: 48 89 45 f0                 	movq	%rax, -16(%rbp)
100004394: e8 67 f8 ff ff              	callq	-1945 <__ZN7Account17_displayTimestampEv>
100004399: 48 8b 3d 68 3c 00 00        	movq	15464(%rip), %rdi
1000043a0: 48 8d 35 a9 39 00 00        	leaq	14761(%rip), %rsi
1000043a7: e8 38 36 00 00              	callq	13880 <dyld_stub_binder+0x1000079e4>
1000043ac: 48 8b 4d f0                 	movq	-16(%rbp), %rcx
1000043b0: 8b 31                       	movl	(%rcx), %esi
1000043b2: 48 89 c7                    	movq	%rax, %rdi
1000043b5: e8 e8 35 00 00              	callq	13800 <dyld_stub_binder+0x1000079a2>
1000043ba: 48 89 c7                    	movq	%rax, %rdi
1000043bd: be 3b 00 00 00              	movl	$59, %esi
1000043c2: e8 23 36 00 00              	callq	13859 <dyld_stub_binder+0x1000079ea>
1000043c7: 48 89 c7                    	movq	%rax, %rdi
1000043ca: 48 8d 35 87 39 00 00        	leaq	14727(%rip), %rsi
1000043d1: e8 0e 36 00 00              	callq	13838 <dyld_stub_binder+0x1000079e4>
1000043d6: 48 8b 4d f0                 	movq	-16(%rbp), %rcx
1000043da: 8b 71 04                    	movl	4(%rcx), %esi
1000043dd: 48 89 c7                    	movq	%rax, %rdi
1000043e0: e8 bd 35 00 00              	callq	13757 <dyld_stub_binder+0x1000079a2>
1000043e5: 48 89 c7                    	movq	%rax, %rdi
1000043e8: be 3b 00 00 00              	movl	$59, %esi
1000043ed: e8 f8 35 00 00              	callq	13816 <dyld_stub_binder+0x1000079ea>
1000043f2: 48 89 c7                    	movq	%rax, %rdi
1000043f5: 48 8d 35 8b 39 00 00        	leaq	14731(%rip), %rsi
1000043fc: e8 e3 35 00 00              	callq	13795 <dyld_stub_binder+0x1000079e4>
100004401: 48 8b 4d f0                 	movq	-16(%rbp), %rcx
100004405: 8b 71 08                    	movl	8(%rcx), %esi
100004408: 48 89 c7                    	movq	%rax, %rdi
10000440b: e8 92 35 00 00              	callq	13714 <dyld_stub_binder+0x1000079a2>
100004410: 48 89 c7                    	movq	%rax, %rdi
100004413: be 3b 00 00 00              	movl	$59, %esi
100004418: e8 cd 35 00 00              	callq	13773 <dyld_stub_binder+0x1000079ea>
10000441d: 48 89 c7                    	movq	%rax, %rdi
100004420: 48 8d 35 6a 39 00 00        	leaq	14698(%rip), %rsi
100004427: e8 b8 35 00 00              	callq	13752 <dyld_stub_binder+0x1000079e4>
10000442c: 48 8b 4d f0                 	movq	-16(%rbp), %rcx
100004430: 8b 71 0c                    	movl	12(%rcx), %esi
100004433: 48 89 c7                    	movq	%rax, %rdi
100004436: e8 67 35 00 00              	callq	13671 <dyld_stub_binder+0x1000079a2>
10000443b: 48 89 c7                    	movq	%rax, %rdi
10000443e: 48 8d 35 3b f9 ff ff        	leaq	-1733(%rip), %rsi
100004445: e8 16 f9 ff ff              	callq	-1770 <__ZNSt3__113basic_ostreamIcNS_11char_traitsIcEEElsEPFRS3_S4_E>
10000444a: 48 83 c4 10                 	addq	$16, %rsp
10000444e: 5d                          	popq	%rbp
10000444f: c3                          	retq

0000000100004450 __ZNSt3__124__put_character_sequenceIcNS_11char_traitsIcEEEERNS_13basic_ostreamIT_T0_EES7_PKS4_m:
100004450: 55                          	pushq	%rbp
100004451: 48 89 e5                    	movq	%rsp, %rbp
100004454: 48 81 ec a0 00 00 00        	subq	$160, %rsp
10000445b: 48 89 7d f8                 	movq	%rdi, -8(%rbp)
10000445f: 48 89 75 f0                 	movq	%rsi, -16(%rbp)
100004463: 48 89 55 e8                 	movq	%rdx, -24(%rbp)
100004467: 48 8b 75 f8                 	movq	-8(%rbp), %rsi
10000446b: 48 8d 7d d8                 	leaq	-40(%rbp), %rdi
10000446f: e8 22 35 00 00              	callq	13602 <dyld_stub_binder+0x100007996>
100004474: e9 00 00 00 00              	jmp	0 <__ZNSt3__124__put_character_sequenceIcNS_11char_traitsIcEEEERNS_13basic_ostreamIT_T0_EES7_PKS4_m+0x29>
100004479: 48 8d 7d d8                 	leaq	-40(%rbp), %rdi
10000447d: e8 fe 01 00 00              	callq	510 <__ZNKSt3__113basic_ostreamIcNS_11char_traitsIcEEE6sentrycvbEv>
100004482: 88 45 b7                    	movb	%al, -73(%rbp)
100004485: e9 00 00 00 00              	jmp	0 <__ZNSt3__124__put_character_sequenceIcNS_11char_traitsIcEEEERNS_13basic_ostreamIT_T0_EES7_PKS4_m+0x3a>
10000448a: 8a 45 b7                    	movb	-73(%rbp), %al
10000448d: a8 01                       	testb	$1, %al
10000448f: 0f 85 05 00 00 00           	jne	5 <__ZNSt3__124__put_character_sequenceIcNS_11char_traitsIcEEEERNS_13basic_ostreamIT_T0_EES7_PKS4_m+0x4a>
100004495: e9 34 01 00 00              	jmp	308 <__ZNSt3__124__put_character_sequenceIcNS_11char_traitsIcEEEERNS_13basic_ostreamIT_T0_EES7_PKS4_m+0x17e>
10000449a: 48 8b 75 f8                 	movq	-8(%rbp), %rsi
10000449e: 48 8d 7d b8                 	leaq	-72(%rbp), %rdi
1000044a2: e8 b9 04 00 00              	callq	1209 <__ZNSt3__119ostreambuf_iteratorIcNS_11char_traitsIcEEEC1ERNS_13basic_ostreamIcS2_EE>
1000044a7: 48 8b 75 f0                 	movq	-16(%rbp), %rsi
1000044ab: 48 8b 45 f8                 	movq	-8(%rbp), %rax
1000044af: 48 8b 08                    	movq	(%rax), %rcx
1000044b2: 48 8b 49 e8                 	movq	-24(%rcx), %rcx
1000044b6: 48 01 c8                    	addq	%rcx, %rax
1000044b9: 48 89 c7                    	movq	%rax, %rdi
1000044bc: 48 89 75 a8                 	movq	%rsi, -88(%rbp)
1000044c0: e8 cb 04 00 00              	callq	1227 <__ZNKSt3__18ios_base5flagsEv>
1000044c5: 89 45 a4                    	movl	%eax, -92(%rbp)
1000044c8: e9 00 00 00 00              	jmp	0 <__ZNSt3__124__put_character_sequenceIcNS_11char_traitsIcEEEERNS_13basic_ostreamIT_T0_EES7_PKS4_m+0x7d>
1000044cd: 8b 45 a4                    	movl	-92(%rbp), %eax
1000044d0: 25 b0 00 00 00              	andl	$176, %eax
1000044d5: 83 f8 20                    	cmpl	$32, %eax
1000044d8: 0f 85 11 00 00 00           	jne	17 <__ZNSt3__124__put_character_sequenceIcNS_11char_traitsIcEEEERNS_13basic_ostreamIT_T0_EES7_PKS4_m+0x9f>
1000044de: 48 8b 45 f0                 	movq	-16(%rbp), %rax
1000044e2: 48 03 45 e8                 	addq	-24(%rbp), %rax
1000044e6: 48 89 45 98                 	movq	%rax, -104(%rbp)
1000044ea: e9 08 00 00 00              	jmp	8 <__ZNSt3__124__put_character_sequenceIcNS_11char_traitsIcEEEERNS_13basic_ostreamIT_T0_EES7_PKS4_m+0xa7>
1000044ef: 48 8b 45 f0                 	movq	-16(%rbp), %rax
1000044f3: 48 89 45 98                 	movq	%rax, -104(%rbp)
1000044f7: 48 8b 45 98                 	movq	-104(%rbp), %rax
1000044fb: 48 8b 4d f0                 	movq	-16(%rbp), %rcx
1000044ff: 48 8b 55 e8                 	movq	-24(%rbp), %rdx
100004503: 48 01 d1                    	addq	%rdx, %rcx
100004506: 48 8b 55 f8                 	movq	-8(%rbp), %rdx
10000450a: 48 8b 32                    	movq	(%rdx), %rsi
10000450d: 48 8b 76 e8                 	movq	-24(%rsi), %rsi
100004511: 48 01 f2                    	addq	%rsi, %rdx
100004514: 48 89 d7                    	movq	%rdx, %rdi
100004517: 48 89 45 90                 	movq	%rax, -112(%rbp)
10000451b: 48 89 4d 88                 	movq	%rcx, -120(%rbp)
10000451f: 48 89 55 80                 	movq	%rdx, -128(%rbp)
100004523: e8 88 04 00 00              	callq	1160 <__ZNKSt3__19basic_iosIcNS_11char_traitsIcEEE4fillEv>
100004528: 88 85 7f ff ff ff           	movb	%al, -129(%rbp)
10000452e: e9 00 00 00 00              	jmp	0 <__ZNSt3__124__put_character_sequenceIcNS_11char_traitsIcEEEERNS_13basic_ostreamIT_T0_EES7_PKS4_m+0xe3>
100004533: 48 8b 7d b8                 	movq	-72(%rbp), %rdi
100004537: 8a 85 7f ff ff ff           	movb	-129(%rbp), %al
10000453d: 44 0f be c8                 	movsbl	%al, %r9d
100004541: 48 8b 75 a8                 	movq	-88(%rbp), %rsi
100004545: 48 8b 55 90                 	movq	-112(%rbp), %rdx
100004549: 48 8b 4d 88                 	movq	-120(%rbp), %rcx
10000454d: 4c 8b 45 80                 	movq	-128(%rbp), %r8
100004551: e8 4a 01 00 00              	callq	330 <__ZNSt3__116__pad_and_outputIcNS_11char_traitsIcEEEENS_19ostreambuf_iteratorIT_T0_EES6_PKS4_S8_S8_RNS_8ios_baseES4_>
100004556: 48 89 85 70 ff ff ff        	movq	%rax, -144(%rbp)
10000455d: e9 00 00 00 00              	jmp	0 <__ZNSt3__124__put_character_sequenceIcNS_11char_traitsIcEEEERNS_13basic_ostreamIT_T0_EES7_PKS4_m+0x112>
100004562: 48 8b 85 70 ff ff ff        	movq	-144(%rbp), %rax
100004569: 48 89 45 c0                 	movq	%rax, -64(%rbp)
10000456d: 48 8d 7d c0                 	leaq	-64(%rbp), %rdi
100004571: e8 aa 04 00 00              	callq	1194 <__ZNKSt3__119ostreambuf_iteratorIcNS_11char_traitsIcEEE6failedEv>
100004576: a8 01                       	testb	$1, %al
100004578: 0f 85 05 00 00 00           	jne	5 <__ZNSt3__124__put_character_sequenceIcNS_11char_traitsIcEEEERNS_13basic_ostreamIT_T0_EES7_PKS4_m+0x133>
10000457e: e9 46 00 00 00              	jmp	70 <__ZNSt3__124__put_character_sequenceIcNS_11char_traitsIcEEEERNS_13basic_ostreamIT_T0_EES7_PKS4_m+0x179>
100004583: 48 8b 45 f8                 	movq	-8(%rbp), %rax
100004587: 48 8b 08                    	movq	(%rax), %rcx
10000458a: 48 8b 49 e8                 	movq	-24(%rcx), %rcx
10000458e: 48 01 c8                    	addq	%rcx, %rax
100004591: be 05 00 00 00              	movl	$5, %esi
100004596: 48 89 c7                    	movq	%rax, %rdi
100004599: e8 a2 04 00 00              	callq	1186 <__ZNSt3__19basic_iosIcNS_11char_traitsIcEEE8setstateEj>
10000459e: e9 00 00 00 00              	jmp	0 <__ZNSt3__124__put_character_sequenceIcNS_11char_traitsIcEEEERNS_13basic_ostreamIT_T0_EES7_PKS4_m+0x153>
1000045a3: e9 21 00 00 00              	jmp	33 <__ZNSt3__124__put_character_sequenceIcNS_11char_traitsIcEEEERNS_13basic_ostreamIT_T0_EES7_PKS4_m+0x179>
1000045a8: 48 89 45 d0                 	movq	%rax, -48(%rbp)
1000045ac: 89 55 cc                    	movl	%edx, -52(%rbp)
1000045af: e9 32 00 00 00              	jmp	50 <__ZNSt3__124__put_character_sequenceIcNS_11char_traitsIcEEEERNS_13basic_ostreamIT_T0_EES7_PKS4_m+0x196>
1000045b4: 48 89 45 d0                 	movq	%rax, -48(%rbp)
1000045b8: 89 55 cc                    	movl	%edx, -52(%rbp)
1000045bb: 48 8d 7d d8                 	leaq	-40(%rbp), %rdi
1000045bf: e8 d8 33 00 00              	callq	13272 <dyld_stub_binder+0x10000799c>
1000045c4: e9 18 00 00 00              	jmp	24 <__ZNSt3__124__put_character_sequenceIcNS_11char_traitsIcEEEERNS_13basic_ostreamIT_T0_EES7_PKS4_m+0x191>
1000045c9: e9 00 00 00 00              	jmp	0 <__ZNSt3__124__put_character_sequenceIcNS_11char_traitsIcEEEERNS_13basic_ostreamIT_T0_EES7_PKS4_m+0x17e>
1000045ce: 48 8d 7d d8                 	leaq	-40(%rbp), %rdi
1000045d2: e8 c5 33 00 00              	callq	13253 <dyld_stub_binder+0x10000799c>
1000045d7: e9 00 00 00 00              	jmp	0 <__ZNSt3__124__put_character_sequenceIcNS_11char_traitsIcEEEERNS_13basic_ostreamIT_T0_EES7_PKS4_m+0x18c>
1000045dc: e9 35 00 00 00              	jmp	53 <__ZNSt3__124__put_character_sequenceIcNS_11char_traitsIcEEEERNS_13basic_ostreamIT_T0_EES7_PKS4_m+0x1c6>
1000045e1: e9 00 00 00 00              	jmp	0 <__ZNSt3__124__put_character_sequenceIcNS_11char_traitsIcEEEERNS_13basic_ostreamIT_T0_EES7_PKS4_m+0x196>
1000045e6: 48 8b 7d d0                 	movq	-48(%rbp), %rdi
1000045ea: e8 19 34 00 00              	callq	13337 <dyld_stub_binder+0x100007a08>
1000045ef: 48 8b 4d f8                 	movq	-8(%rbp), %rcx
1000045f3: 48 8b 11                    	movq	(%rcx), %rdx
1000045f6: 48 8b 52 e8                 	movq	-24(%rdx), %rdx
1000045fa: 48 01 d1                    	addq	%rdx, %rcx
1000045fd: 48 89 cf                    	movq	%rcx, %rdi
100004600: 48 89 85 68 ff ff ff        	movq	%rax, -152(%rbp)
100004607: e8 cc 33 00 00              	callq	13260 <dyld_stub_binder+0x1000079d8>
10000460c: e9 00 00 00 00              	jmp	0 <__ZNSt3__124__put_character_sequenceIcNS_11char_traitsIcEEEERNS_13basic_ostreamIT_T0_EES7_PKS4_m+0x1c1>
100004611: e8 fe 33 00 00              	callq	13310 <dyld_stub_binder+0x100007a14>
100004616: 48 8b 45 f8                 	movq	-8(%rbp), %rax
10000461a: 48 81 c4 a0 00 00 00        	addq	$160, %rsp
100004621: 5d                          	popq	%rbp
100004622: c3                          	retq
100004623: 48 89 45 d0                 	movq	%rax, -48(%rbp)
100004627: 89 55 cc                    	movl	%edx, -52(%rbp)
10000462a: e8 e5 33 00 00              	callq	13285 <dyld_stub_binder+0x100007a14>
10000462f: e9 00 00 00 00              	jmp	0 <__ZNSt3__124__put_character_sequenceIcNS_11char_traitsIcEEEERNS_13basic_ostreamIT_T0_EES7_PKS4_m+0x1e4>
100004634: e9 00 00 00 00              	jmp	0 <__ZNSt3__124__put_character_sequenceIcNS_11char_traitsIcEEEERNS_13basic_ostreamIT_T0_EES7_PKS4_m+0x1e9>
100004639: 48 8b 7d d0                 	movq	-48(%rbp), %rdi
10000463d: e8 00 33 00 00              	callq	13056 <dyld_stub_binder+0x100007942>
100004642: 0f 0b                       	ud2
100004644: 48 89 c7                    	movq	%rax, %rdi
100004647: 48 89 95 60 ff ff ff        	movq	%rdx, -160(%rbp)
10000464e: e8 1d 04 00 00              	callq	1053 <___clang_call_terminate>
100004653: 66 2e 0f 1f 84 00 00 00 00 00       	nopw	%cs:(%rax,%rax)
10000465d: 0f 1f 00                    	nopl	(%rax)

0000000100004660 __ZNSt3__111char_traitsIcE6lengthEPKc:
100004660: 55                          	pushq	%rbp
100004661: 48 89 e5                    	movq	%rsp, %rbp
100004664: 48 83 ec 10                 	subq	$16, %rsp
100004668: 48 89 7d f8                 	movq	%rdi, -8(%rbp)
10000466c: 48 8b 7d f8                 	movq	-8(%rbp), %rdi
100004670: e8 c3 33 00 00              	callq	13251 <dyld_stub_binder+0x100007a38>
100004675: 48 83 c4 10                 	addq	$16, %rsp
100004679: 5d                          	popq	%rbp
10000467a: c3                          	retq
10000467b: 0f 1f 44 00 00              	nopl	(%rax,%rax)

0000000100004680 __ZNKSt3__113basic_ostreamIcNS_11char_traitsIcEEE6sentrycvbEv:
100004680: 55                          	pushq	%rbp
100004681: 48 89 e5                    	movq	%rsp, %rbp
100004684: 48 89 7d f8                 	movq	%rdi, -8(%rbp)
100004688: 48 8b 45 f8                 	movq	-8(%rbp), %rax
10000468c: 8a 08                       	movb	(%rax), %cl
10000468e: 80 e1 01                    	andb	$1, %cl
100004691: 0f b6 c1                    	movzbl	%cl, %eax
100004694: 5d                          	popq	%rbp
100004695: c3                          	retq
100004696: 66 2e 0f 1f 84 00 00 00 00 00       	nopw	%cs:(%rax,%rax)

00000001000046a0 __ZNSt3__116__pad_and_outputIcNS_11char_traitsIcEEEENS_19ostreambuf_iteratorIT_T0_EES6_PKS4_S8_S8_RNS_8ios_baseES4_:
1000046a0: 55                          	pushq	%rbp
1000046a1: 48 89 e5                    	movq	%rsp, %rbp
1000046a4: 48 81 ec e0 00 00 00        	subq	$224, %rsp
1000046ab: 48 89 7d f0                 	movq	%rdi, -16(%rbp)
1000046af: 48 89 75 e8                 	movq	%rsi, -24(%rbp)
1000046b3: 48 89 55 e0                 	movq	%rdx, -32(%rbp)
1000046b7: 48 89 4d d8                 	movq	%rcx, -40(%rbp)
1000046bb: 4c 89 45 d0                 	movq	%r8, -48(%rbp)
1000046bf: 44 88 4d cf                 	movb	%r9b, -49(%rbp)
1000046c3: 48 8b 45 f0                 	movq	-16(%rbp), %rax
1000046c7: 48 89 85 58 ff ff ff        	movq	%rax, -168(%rbp)
1000046ce: e8 ad 03 00 00              	callq	941 <__ZNSt3__1L15__get_nullptr_tEv>
1000046d3: 48 89 45 c0                 	movq	%rax, -64(%rbp)
1000046d7: 48 8d 7d c0                 	leaq	-64(%rbp), %rdi
1000046db: e8 d0 03 00 00              	callq	976 <__ZNKSt3__19nullptr_tcvPT_INS_15basic_streambufIcNS_11char_traitsIcEEEEEEv>
1000046e0: 48 8b 8d 58 ff ff ff        	movq	-168(%rbp), %rcx
1000046e7: 48 39 c1                    	cmpq	%rax, %rcx
1000046ea: 0f 85 0d 00 00 00           	jne	13 <__ZNSt3__116__pad_and_outputIcNS_11char_traitsIcEEEENS_19ostreambuf_iteratorIT_T0_EES6_PKS4_S8_S8_RNS_8ios_baseES4_+0x5d>
1000046f0: 48 8b 45 f0                 	movq	-16(%rbp), %rax
1000046f4: 48 89 45 f8                 	movq	%rax, -8(%rbp)
1000046f8: e9 31 02 00 00              	jmp	561 <__ZNSt3__116__pad_and_outputIcNS_11char_traitsIcEEEENS_19ostreambuf_iteratorIT_T0_EES6_PKS4_S8_S8_RNS_8ios_baseES4_+0x28e>
1000046fd: 48 8b 45 d8                 	movq	-40(%rbp), %rax
100004701: 48 8b 4d e8                 	movq	-24(%rbp), %rcx
100004705: 48 29 c8                    	subq	%rcx, %rax
100004708: 48 89 45 b8                 	movq	%rax, -72(%rbp)
10000470c: 48 8b 7d d0                 	movq	-48(%rbp), %rdi
100004710: e8 ab 03 00 00              	callq	939 <__ZNKSt3__18ios_base5widthEv>
100004715: 48 89 45 b0                 	movq	%rax, -80(%rbp)
100004719: 48 8b 45 b0                 	movq	-80(%rbp), %rax
10000471d: 48 3b 45 b8                 	cmpq	-72(%rbp), %rax
100004721: 0f 8e 14 00 00 00           	jle	20 <__ZNSt3__116__pad_and_outputIcNS_11char_traitsIcEEEENS_19ostreambuf_iteratorIT_T0_EES6_PKS4_S8_S8_RNS_8ios_baseES4_+0x9b>
100004727: 48 8b 45 b8                 	movq	-72(%rbp), %rax
10000472b: 48 8b 4d b0                 	movq	-80(%rbp), %rcx
10000472f: 48 29 c1                    	subq	%rax, %rcx
100004732: 48 89 4d b0                 	movq	%rcx, -80(%rbp)
100004736: e9 08 00 00 00              	jmp	8 <__ZNSt3__116__pad_and_outputIcNS_11char_traitsIcEEEENS_19ostreambuf_iteratorIT_T0_EES6_PKS4_S8_S8_RNS_8ios_baseES4_+0xa3>
10000473b: 48 c7 45 b0 00 00 00 00     	movq	$0, -80(%rbp)
100004743: 48 8b 45 e0                 	movq	-32(%rbp), %rax
100004747: 48 8b 4d e8                 	movq	-24(%rbp), %rcx
10000474b: 48 29 c8                    	subq	%rcx, %rax
10000474e: 48 89 45 a8                 	movq	%rax, -88(%rbp)
100004752: 48 83 7d a8 00              	cmpq	$0, -88(%rbp)
100004757: 0f 8e 43 00 00 00           	jle	67 <__ZNSt3__116__pad_and_outputIcNS_11char_traitsIcEEEENS_19ostreambuf_iteratorIT_T0_EES6_PKS4_S8_S8_RNS_8ios_baseES4_+0x100>
10000475d: 48 8b 7d f0                 	movq	-16(%rbp), %rdi
100004761: 48 8b 75 e8                 	movq	-24(%rbp), %rsi
100004765: 48 8b 55 a8                 	movq	-88(%rbp), %rdx
100004769: e8 72 03 00 00              	callq	882 <__ZNSt3__115basic_streambufIcNS_11char_traitsIcEEE5sputnEPKcl>
10000476e: 48 3b 45 a8                 	cmpq	-88(%rbp), %rax
100004772: 0f 84 23 00 00 00           	je	35 <__ZNSt3__116__pad_and_outputIcNS_11char_traitsIcEEEENS_19ostreambuf_iteratorIT_T0_EES6_PKS4_S8_S8_RNS_8ios_baseES4_+0xfb>
100004778: e8 03 03 00 00              	callq	771 <__ZNSt3__1L15__get_nullptr_tEv>
10000477d: 48 89 45 a0                 	movq	%rax, -96(%rbp)
100004781: 48 8d 7d a0                 	leaq	-96(%rbp), %rdi
100004785: e8 26 03 00 00              	callq	806 <__ZNKSt3__19nullptr_tcvPT_INS_15basic_streambufIcNS_11char_traitsIcEEEEEEv>
10000478a: 48 89 45 f0                 	movq	%rax, -16(%rbp)
10000478e: 48 8b 45 f0                 	movq	-16(%rbp), %rax
100004792: 48 89 45 f8                 	movq	%rax, -8(%rbp)
100004796: e9 93 01 00 00              	jmp	403 <__ZNSt3__116__pad_and_outputIcNS_11char_traitsIcEEEENS_19ostreambuf_iteratorIT_T0_EES6_PKS4_S8_S8_RNS_8ios_baseES4_+0x28e>
10000479b: e9 00 00 00 00              	jmp	0 <__ZNSt3__116__pad_and_outputIcNS_11char_traitsIcEEEENS_19ostreambuf_iteratorIT_T0_EES6_PKS4_S8_S8_RNS_8ios_baseES4_+0x100>
1000047a0: 48 83 7d b0 00              	cmpq	$0, -80(%rbp)
1000047a5: 0f 8e 0b 01 00 00           	jle	267 <__ZNSt3__116__pad_and_outputIcNS_11char_traitsIcEEEENS_19ostreambuf_iteratorIT_T0_EES6_PKS4_S8_S8_RNS_8ios_baseES4_+0x216>
1000047ab: 48 8b 75 b0                 	movq	-80(%rbp), %rsi
1000047af: 0f be 55 cf                 	movsbl	-49(%rbp), %edx
1000047b3: 48 8d 45 88                 	leaq	-120(%rbp), %rax
1000047b7: 48 89 c7                    	movq	%rax, %rdi
1000047ba: 48 89 85 50 ff ff ff        	movq	%rax, -176(%rbp)
1000047c1: e8 4a 03 00 00              	callq	842 <__ZNSt3__112basic_stringIcNS_11char_traitsIcEENS_9allocatorIcEEEC1Emc>
1000047c6: 48 8b 7d f0                 	movq	-16(%rbp), %rdi
1000047ca: 48 8b 85 50 ff ff ff        	movq	-176(%rbp), %rax
1000047d1: 48 89 bd 48 ff ff ff        	movq	%rdi, -184(%rbp)
1000047d8: 48 89 c7                    	movq	%rax, %rdi
1000047db: e8 60 03 00 00              	callq	864 <__ZNKSt3__112basic_stringIcNS_11char_traitsIcEENS_9allocatorIcEEE4dataEv>
1000047e0: 48 8b 55 b0                 	movq	-80(%rbp), %rdx
1000047e4: 48 8b bd 48 ff ff ff        	movq	-184(%rbp), %rdi
1000047eb: 48 89 c6                    	movq	%rax, %rsi
1000047ee: e8 ed 02 00 00              	callq	749 <__ZNSt3__115basic_streambufIcNS_11char_traitsIcEEE5sputnEPKcl>
1000047f3: 48 89 85 40 ff ff ff        	movq	%rax, -192(%rbp)
1000047fa: e9 00 00 00 00              	jmp	0 <__ZNSt3__116__pad_and_outputIcNS_11char_traitsIcEEEENS_19ostreambuf_iteratorIT_T0_EES6_PKS4_S8_S8_RNS_8ios_baseES4_+0x15f>
1000047ff: 48 8b 85 40 ff ff ff        	movq	-192(%rbp), %rax
100004806: 48 3b 45 b0                 	cmpq	-80(%rbp), %rax
10000480a: 0f 84 71 00 00 00           	je	113 <__ZNSt3__116__pad_and_outputIcNS_11char_traitsIcEEEENS_19ostreambuf_iteratorIT_T0_EES6_PKS4_S8_S8_RNS_8ios_baseES4_+0x1e1>
100004810: e8 6b 02 00 00              	callq	619 <__ZNSt3__1L15__get_nullptr_tEv>
100004815: 48 89 85 38 ff ff ff        	movq	%rax, -200(%rbp)
10000481c: e9 00 00 00 00              	jmp	0 <__ZNSt3__116__pad_and_outputIcNS_11char_traitsIcEEEENS_19ostreambuf_iteratorIT_T0_EES6_PKS4_S8_S8_RNS_8ios_baseES4_+0x181>
100004821: 48 8b 85 38 ff ff ff        	movq	-200(%rbp), %rax
100004828: 48 89 85 70 ff ff ff        	movq	%rax, -144(%rbp)
10000482f: 48 8d bd 70 ff ff ff        	leaq	-144(%rbp), %rdi
100004836: e8 75 02 00 00              	callq	629 <__ZNKSt3__19nullptr_tcvPT_INS_15basic_streambufIcNS_11char_traitsIcEEEEEEv>
10000483b: 48 89 85 30 ff ff ff        	movq	%rax, -208(%rbp)
100004842: e9 00 00 00 00              	jmp	0 <__ZNSt3__116__pad_and_outputIcNS_11char_traitsIcEEEENS_19ostreambuf_iteratorIT_T0_EES6_PKS4_S8_S8_RNS_8ios_baseES4_+0x1a7>
100004847: 48 8b 85 30 ff ff ff        	movq	-208(%rbp), %rax
10000484e: 48 89 45 f0                 	movq	%rax, -16(%rbp)
100004852: 48 8b 4d f0                 	movq	-16(%rbp), %rcx
100004856: 48 89 4d f8                 	movq	%rcx, -8(%rbp)
10000485a: c7 85 6c ff ff ff 01 00 00 00       	movl	$1, -148(%rbp)
100004864: e9 22 00 00 00              	jmp	34 <__ZNSt3__116__pad_and_outputIcNS_11char_traitsIcEEEENS_19ostreambuf_iteratorIT_T0_EES6_PKS4_S8_S8_RNS_8ios_baseES4_+0x1eb>
100004869: 48 89 45 80                 	movq	%rax, -128(%rbp)
10000486d: 89 95 7c ff ff ff           	movl	%edx, -132(%rbp)
100004873: 48 8d 7d 88                 	leaq	-120(%rbp), %rdi
100004877: e8 08 31 00 00              	callq	12552 <dyld_stub_binder+0x100007984>
10000487c: e9 30 00 00 00              	jmp	48 <__ZNSt3__116__pad_and_outputIcNS_11char_traitsIcEEEENS_19ostreambuf_iteratorIT_T0_EES6_PKS4_S8_S8_RNS_8ios_baseES4_+0x211>
100004881: c7 85 6c ff ff ff 00 00 00 00       	movl	$0, -148(%rbp)
10000488b: 48 8d 7d 88                 	leaq	-120(%rbp), %rdi
10000488f: e8 f0 30 00 00              	callq	12528 <dyld_stub_binder+0x100007984>
100004894: 8b 85 6c ff ff ff           	movl	-148(%rbp), %eax
10000489a: 85 c0                       	testl	%eax, %eax
10000489c: 0f 84 0a 00 00 00           	je	10 <__ZNSt3__116__pad_and_outputIcNS_11char_traitsIcEEEENS_19ostreambuf_iteratorIT_T0_EES6_PKS4_S8_S8_RNS_8ios_baseES4_+0x20c>
1000048a2: e9 00 00 00 00              	jmp	0 <__ZNSt3__116__pad_and_outputIcNS_11char_traitsIcEEEENS_19ostreambuf_iteratorIT_T0_EES6_PKS4_S8_S8_RNS_8ios_baseES4_+0x207>
1000048a7: e9 82 00 00 00              	jmp	130 <__ZNSt3__116__pad_and_outputIcNS_11char_traitsIcEEEENS_19ostreambuf_iteratorIT_T0_EES6_PKS4_S8_S8_RNS_8ios_baseES4_+0x28e>
1000048ac: e9 05 00 00 00              	jmp	5 <__ZNSt3__116__pad_and_outputIcNS_11char_traitsIcEEEENS_19ostreambuf_iteratorIT_T0_EES6_PKS4_S8_S8_RNS_8ios_baseES4_+0x216>
1000048b1: e9 85 00 00 00              	jmp	133 <__ZNSt3__116__pad_and_outputIcNS_11char_traitsIcEEEENS_19ostreambuf_iteratorIT_T0_EES6_PKS4_S8_S8_RNS_8ios_baseES4_+0x29b>
1000048b6: 48 8b 45 d8                 	movq	-40(%rbp), %rax
1000048ba: 48 8b 4d e0                 	movq	-32(%rbp), %rcx
1000048be: 48 29 c8                    	subq	%rcx, %rax
1000048c1: 48 89 45 a8                 	movq	%rax, -88(%rbp)
1000048c5: 48 83 7d a8 00              	cmpq	$0, -88(%rbp)
1000048ca: 0f 8e 49 00 00 00           	jle	73 <__ZNSt3__116__pad_and_outputIcNS_11char_traitsIcEEEENS_19ostreambuf_iteratorIT_T0_EES6_PKS4_S8_S8_RNS_8ios_baseES4_+0x279>
1000048d0: 48 8b 7d f0                 	movq	-16(%rbp), %rdi
1000048d4: 48 8b 75 e0                 	movq	-32(%rbp), %rsi
1000048d8: 48 8b 55 a8                 	movq	-88(%rbp), %rdx
1000048dc: e8 ff 01 00 00              	callq	511 <__ZNSt3__115basic_streambufIcNS_11char_traitsIcEEE5sputnEPKcl>
1000048e1: 48 3b 45 a8                 	cmpq	-88(%rbp), %rax
1000048e5: 0f 84 29 00 00 00           	je	41 <__ZNSt3__116__pad_and_outputIcNS_11char_traitsIcEEEENS_19ostreambuf_iteratorIT_T0_EES6_PKS4_S8_S8_RNS_8ios_baseES4_+0x274>
1000048eb: e8 90 01 00 00              	callq	400 <__ZNSt3__1L15__get_nullptr_tEv>
1000048f0: 48 89 85 60 ff ff ff        	movq	%rax, -160(%rbp)
1000048f7: 48 8d bd 60 ff ff ff        	leaq	-160(%rbp), %rdi
1000048fe: e8 ad 01 00 00              	callq	429 <__ZNKSt3__19nullptr_tcvPT_INS_15basic_streambufIcNS_11char_traitsIcEEEEEEv>
100004903: 48 89 45 f0                 	movq	%rax, -16(%rbp)
100004907: 48 8b 45 f0                 	movq	-16(%rbp), %rax
10000490b: 48 89 45 f8                 	movq	%rax, -8(%rbp)
10000490f: e9 1a 00 00 00              	jmp	26 <__ZNSt3__116__pad_and_outputIcNS_11char_traitsIcEEEENS_19ostreambuf_iteratorIT_T0_EES6_PKS4_S8_S8_RNS_8ios_baseES4_+0x28e>
100004914: e9 00 00 00 00              	jmp	0 <__ZNSt3__116__pad_and_outputIcNS_11char_traitsIcEEEENS_19ostreambuf_iteratorIT_T0_EES6_PKS4_S8_S8_RNS_8ios_baseES4_+0x279>
100004919: 31 c0                       	xorl	%eax, %eax
10000491b: 89 c6                       	movl	%eax, %esi
10000491d: 48 8b 7d d0                 	movq	-48(%rbp), %rdi
100004921: e8 4a 02 00 00              	callq	586 <__ZNSt3__18ios_base5widthEl>
100004926: 48 8b 4d f0                 	movq	-16(%rbp), %rcx
10000492a: 48 89 4d f8                 	movq	%rcx, -8(%rbp)
10000492e: 48 8b 45 f8                 	movq	-8(%rbp), %rax
100004932: 48 81 c4 e0 00 00 00        	addq	$224, %rsp
100004939: 5d                          	popq	%rbp
10000493a: c3                          	retq
10000493b: 48 8b 7d 80                 	movq	-128(%rbp), %rdi
10000493f: e8 fe 2f 00 00              	callq	12286 <dyld_stub_binder+0x100007942>
100004944: 0f 0b                       	ud2
100004946: 48 89 c7                    	movq	%rax, %rdi
100004949: 48 89 95 28 ff ff ff        	movq	%rdx, -216(%rbp)
100004950: e8 1b 01 00 00              	callq	283 <___clang_call_terminate>
100004955: 0f 0b                       	ud2
100004957: 66 0f 1f 84 00 00 00 00 00  	nopw	(%rax,%rax)

0000000100004960 __ZNSt3__119ostreambuf_iteratorIcNS_11char_traitsIcEEEC1ERNS_13basic_ostreamIcS2_EE:
100004960: 55                          	pushq	%rbp
100004961: 48 89 e5                    	movq	%rsp, %rbp
100004964: 48 83 ec 10                 	subq	$16, %rsp
100004968: 48 89 7d f8                 	movq	%rdi, -8(%rbp)
10000496c: 48 89 75 f0                 	movq	%rsi, -16(%rbp)
100004970: 48 8b 7d f8                 	movq	-8(%rbp), %rdi
100004974: 48 8b 75 f0                 	movq	-16(%rbp), %rsi
100004978: e8 03 05 00 00              	callq	1283 <__ZNSt3__119ostreambuf_iteratorIcNS_11char_traitsIcEEEC2ERNS_13basic_ostreamIcS2_EE>
10000497d: 48 83 c4 10                 	addq	$16, %rsp
100004981: 5d                          	popq	%rbp
100004982: c3                          	retq
100004983: 66 2e 0f 1f 84 00 00 00 00 00       	nopw	%cs:(%rax,%rax)
10000498d: 0f 1f 00                    	nopl	(%rax)

0000000100004990 __ZNKSt3__18ios_base5flagsEv:
100004990: 55                          	pushq	%rbp
100004991: 48 89 e5                    	movq	%rsp, %rbp
100004994: 48 89 7d f8                 	movq	%rdi, -8(%rbp)
100004998: 48 8b 45 f8                 	movq	-8(%rbp), %rax
10000499c: 8b 40 08                    	movl	8(%rax), %eax
10000499f: 5d                          	popq	%rbp
1000049a0: c3                          	retq
1000049a1: 66 2e 0f 1f 84 00 00 00 00 00       	nopw	%cs:(%rax,%rax)
1000049ab: 0f 1f 44 00 00              	nopl	(%rax,%rax)

00000001000049b0 __ZNKSt3__19basic_iosIcNS_11char_traitsIcEEE4fillEv:
1000049b0: 55                          	pushq	%rbp
1000049b1: 48 89 e5                    	movq	%rsp, %rbp
1000049b4: 48 83 ec 10                 	subq	$16, %rsp
1000049b8: 48 89 7d f8                 	movq	%rdi, -8(%rbp)
1000049bc: 48 8b 45 f8                 	movq	-8(%rbp), %rax
1000049c0: 48 89 45 f0                 	movq	%rax, -16(%rbp)
1000049c4: e8 a9 2f 00 00              	callq	12201 <dyld_stub_binder+0x100007972>
1000049c9: 48 8b 4d f0                 	movq	-16(%rbp), %rcx
1000049cd: 8b b1 90 00 00 00           	movl	144(%rcx), %esi
1000049d3: 89 c7                       	movl	%eax, %edi
1000049d5: e8 92 2f 00 00              	callq	12178 <dyld_stub_binder+0x10000796c>
1000049da: a8 01                       	testb	$1, %al
1000049dc: 0f 85 05 00 00 00           	jne	5 <__ZNKSt3__19basic_iosIcNS_11char_traitsIcEEE4fillEv+0x37>
1000049e2: e9 1b 00 00 00              	jmp	27 <__ZNKSt3__19basic_iosIcNS_11char_traitsIcEEE4fillEv+0x52>
1000049e7: 48 8b 7d f0                 	movq	-16(%rbp), %rdi
1000049eb: be 20 00 00 00              	movl	$32, %esi
1000049f0: e8 5b 05 00 00              	callq	1371 <__ZNKSt3__19basic_iosIcNS_11char_traitsIcEEE5widenEc>
1000049f5: 0f be c8                    	movsbl	%al, %ecx
1000049f8: 48 8b 55 f0                 	movq	-16(%rbp), %rdx
1000049fc: 89 8a 90 00 00 00           	movl	%ecx, 144(%rdx)
100004a02: 48 8b 45 f0                 	movq	-16(%rbp), %rax
100004a06: 8b 88 90 00 00 00           	movl	144(%rax), %ecx
100004a0c: 0f be d1                    	movsbl	%cl, %edx
100004a0f: 89 d0                       	movl	%edx, %eax
100004a11: 48 83 c4 10                 	addq	$16, %rsp
100004a15: 5d                          	popq	%rbp
100004a16: c3                          	retq
100004a17: 66 0f 1f 84 00 00 00 00 00  	nopw	(%rax,%rax)

0000000100004a20 __ZNKSt3__119ostreambuf_iteratorIcNS_11char_traitsIcEEE6failedEv:
100004a20: 55                          	pushq	%rbp
100004a21: 48 89 e5                    	movq	%rsp, %rbp
100004a24: 48 89 7d f8                 	movq	%rdi, -8(%rbp)
100004a28: 48 8b 45 f8                 	movq	-8(%rbp), %rax
100004a2c: 48 83 38 00                 	cmpq	$0, (%rax)
100004a30: 0f 94 c1                    	sete	%cl
100004a33: 80 e1 01                    	andb	$1, %cl
100004a36: 0f b6 c1                    	movzbl	%cl, %eax
100004a39: 5d                          	popq	%rbp
100004a3a: c3                          	retq
100004a3b: 0f 1f 44 00 00              	nopl	(%rax,%rax)

0000000100004a40 __ZNSt3__19basic_iosIcNS_11char_traitsIcEEE8setstateEj:
100004a40: 55                          	pushq	%rbp
100004a41: 48 89 e5                    	movq	%rsp, %rbp
100004a44: 48 83 ec 10                 	subq	$16, %rsp
100004a48: 48 89 7d f8                 	movq	%rdi, -8(%rbp)
100004a4c: 89 75 f4                    	movl	%esi, -12(%rbp)
100004a4f: 48 8b 45 f8                 	movq	-8(%rbp), %rax
100004a53: 8b 75 f4                    	movl	-12(%rbp), %esi
100004a56: 48 89 c7                    	movq	%rax, %rdi
100004a59: e8 f2 05 00 00              	callq	1522 <__ZNSt3__18ios_base8setstateEj>
100004a5e: 48 83 c4 10                 	addq	$16, %rsp
100004a62: 5d                          	popq	%rbp
100004a63: c3                          	retq
100004a64: 66 2e 0f 1f 84 00 00 00 00 00       	nopw	%cs:(%rax,%rax)
100004a6e: 66 90                       	nop

0000000100004a70 ___clang_call_terminate:
100004a70: 50                          	pushq	%rax
100004a71: e8 92 2f 00 00              	callq	12178 <dyld_stub_binder+0x100007a08>
100004a76: 48 89 04 24                 	movq	%rax, (%rsp)
100004a7a: e8 71 2f 00 00              	callq	12145 <dyld_stub_binder+0x1000079f0>
100004a7f: 90                          	nop

0000000100004a80 __ZNSt3__1L15__get_nullptr_tEv:
100004a80: 55                          	pushq	%rbp
100004a81: 48 89 e5                    	movq	%rsp, %rbp
100004a84: 48 83 ec 10                 	subq	$16, %rsp
100004a88: 48 8d 7d f8                 	leaq	-8(%rbp), %rdi
100004a8c: 48 c7 c6 ff ff ff ff        	movq	$-1, %rsi
100004a93: e8 08 01 00 00              	callq	264 <__ZNSt3__19nullptr_tC1EMNS0_5__natEi>
100004a98: 48 8b 45 f8                 	movq	-8(%rbp), %rax
100004a9c: 48 83 c4 10                 	addq	$16, %rsp
100004aa0: 5d                          	popq	%rbp
100004aa1: c3                          	retq
100004aa2: 66 2e 0f 1f 84 00 00 00 00 00       	nopw	%cs:(%rax,%rax)
100004aac: 0f 1f 40 00                 	nopl	(%rax)

0000000100004ab0 __ZNKSt3__19nullptr_tcvPT_INS_15basic_streambufIcNS_11char_traitsIcEEEEEEv:
100004ab0: 55                          	pushq	%rbp
100004ab1: 48 89 e5                    	movq	%rsp, %rbp
100004ab4: 31 c0                       	xorl	%eax, %eax
100004ab6: 48 89 7d f8                 	movq	%rdi, -8(%rbp)
100004aba: 5d                          	popq	%rbp
100004abb: c3                          	retq
100004abc: 0f 1f 40 00                 	nopl	(%rax)

0000000100004ac0 __ZNKSt3__18ios_base5widthEv:
100004ac0: 55                          	pushq	%rbp
100004ac1: 48 89 e5                    	movq	%rsp, %rbp
100004ac4: 48 89 7d f8                 	movq	%rdi, -8(%rbp)
100004ac8: 48 8b 45 f8                 	movq	-8(%rbp), %rax
100004acc: 48 8b 40 18                 	movq	24(%rax), %rax
100004ad0: 5d                          	popq	%rbp
100004ad1: c3                          	retq
100004ad2: 66 2e 0f 1f 84 00 00 00 00 00       	nopw	%cs:(%rax,%rax)
100004adc: 0f 1f 40 00                 	nopl	(%rax)

0000000100004ae0 __ZNSt3__115basic_streambufIcNS_11char_traitsIcEEE5sputnEPKcl:
100004ae0: 55                          	pushq	%rbp
100004ae1: 48 89 e5                    	movq	%rsp, %rbp
100004ae4: 48 83 ec 20                 	subq	$32, %rsp
100004ae8: 48 89 7d f8                 	movq	%rdi, -8(%rbp)
100004aec: 48 89 75 f0                 	movq	%rsi, -16(%rbp)
100004af0: 48 89 55 e8                 	movq	%rdx, -24(%rbp)
100004af4: 48 8b 45 f8                 	movq	-8(%rbp), %rax
100004af8: 48 8b 75 f0                 	movq	-16(%rbp), %rsi
100004afc: 48 8b 55 e8                 	movq	-24(%rbp), %rdx
100004b00: 48 8b 08                    	movq	(%rax), %rcx
100004b03: 48 89 c7                    	movq	%rax, %rdi
100004b06: ff 51 60                    	callq	*96(%rcx)
100004b09: 48 83 c4 20                 	addq	$32, %rsp
100004b0d: 5d                          	popq	%rbp
100004b0e: c3                          	retq
100004b0f: 90                          	nop

0000000100004b10 __ZNSt3__112basic_stringIcNS_11char_traitsIcEENS_9allocatorIcEEEC1Emc:
100004b10: 55                          	pushq	%rbp
100004b11: 48 89 e5                    	movq	%rsp, %rbp
100004b14: 48 83 ec 20                 	subq	$32, %rsp
100004b18: 48 89 7d f8                 	movq	%rdi, -8(%rbp)
100004b1c: 48 89 75 f0                 	movq	%rsi, -16(%rbp)
100004b20: 88 55 ef                    	movb	%dl, -17(%rbp)
100004b23: 48 8b 7d f8                 	movq	-8(%rbp), %rdi
100004b27: 48 8b 75 f0                 	movq	-16(%rbp), %rsi
100004b2b: 0f be 55 ef                 	movsbl	-17(%rbp), %edx
100004b2f: e8 bc 00 00 00              	callq	188 <__ZNSt3__112basic_stringIcNS_11char_traitsIcEENS_9allocatorIcEEEC2Emc>
100004b34: 48 83 c4 20                 	addq	$32, %rsp
100004b38: 5d                          	popq	%rbp
100004b39: c3                          	retq
100004b3a: 66 0f 1f 44 00 00           	nopw	(%rax,%rax)

0000000100004b40 __ZNKSt3__112basic_stringIcNS_11char_traitsIcEENS_9allocatorIcEEE4dataEv:
100004b40: 55                          	pushq	%rbp
100004b41: 48 89 e5                    	movq	%rsp, %rbp
100004b44: 48 83 ec 10                 	subq	$16, %rsp
100004b48: 48 89 7d f8                 	movq	%rdi, -8(%rbp)
100004b4c: 48 8b 7d f8                 	movq	-8(%rbp), %rdi
100004b50: e8 db 01 00 00              	callq	475 <__ZNKSt3__112basic_stringIcNS_11char_traitsIcEENS_9allocatorIcEEE13__get_pointerEv>
100004b55: 48 89 c7                    	movq	%rax, %rdi
100004b58: e8 c3 01 00 00              	callq	451 <__ZNSt3__1L12__to_addressIKcEEPT_S3_>
100004b5d: 48 83 c4 10                 	addq	$16, %rsp
100004b61: 5d                          	popq	%rbp
100004b62: c3                          	retq
100004b63: 66 2e 0f 1f 84 00 00 00 00 00       	nopw	%cs:(%rax,%rax)
100004b6d: 0f 1f 00                    	nopl	(%rax)

0000000100004b70 __ZNSt3__18ios_base5widthEl:
100004b70: 55                          	pushq	%rbp
100004b71: 48 89 e5                    	movq	%rsp, %rbp
100004b74: 48 89 7d f8                 	movq	%rdi, -8(%rbp)
100004b78: 48 89 75 f0                 	movq	%rsi, -16(%rbp)
100004b7c: 48 8b 45 f8                 	movq	-8(%rbp), %rax
100004b80: 48 8b 48 18                 	movq	24(%rax), %rcx
100004b84: 48 89 4d e8                 	movq	%rcx, -24(%rbp)
100004b88: 48 8b 4d f0                 	movq	-16(%rbp), %rcx
100004b8c: 48 89 48 18                 	movq	%rcx, 24(%rax)
100004b90: 48 8b 45 e8                 	movq	-24(%rbp), %rax
100004b94: 5d                          	popq	%rbp
100004b95: c3                          	retq
100004b96: 66 2e 0f 1f 84 00 00 00 00 00       	nopw	%cs:(%rax,%rax)

0000000100004ba0 __ZNSt3__19nullptr_tC1EMNS0_5__natEi:
100004ba0: 55                          	pushq	%rbp
100004ba1: 48 89 e5                    	movq	%rsp, %rbp
100004ba4: 48 83 ec 10                 	subq	$16, %rsp
100004ba8: 48 89 7d f8                 	movq	%rdi, -8(%rbp)
100004bac: 48 89 75 f0                 	movq	%rsi, -16(%rbp)
100004bb0: 48 8b 7d f8                 	movq	-8(%rbp), %rdi
100004bb4: 48 8b 75 f0                 	movq	-16(%rbp), %rsi
100004bb8: e8 13 00 00 00              	callq	19 <__ZNSt3__19nullptr_tC2EMNS0_5__natEi>
100004bbd: 48 83 c4 10                 	addq	$16, %rsp
100004bc1: 5d                          	popq	%rbp
100004bc2: c3                          	retq
100004bc3: 66 2e 0f 1f 84 00 00 00 00 00       	nopw	%cs:(%rax,%rax)
100004bcd: 0f 1f 00                    	nopl	(%rax)

0000000100004bd0 __ZNSt3__19nullptr_tC2EMNS0_5__natEi:
100004bd0: 55                          	pushq	%rbp
100004bd1: 48 89 e5                    	movq	%rsp, %rbp
100004bd4: 48 89 7d f8                 	movq	%rdi, -8(%rbp)
100004bd8: 48 89 75 f0                 	movq	%rsi, -16(%rbp)
100004bdc: 48 8b 45 f8                 	movq	-8(%rbp), %rax
100004be0: 48 c7 00 00 00 00 00        	movq	$0, (%rax)
100004be7: 5d                          	popq	%rbp
100004be8: c3                          	retq
100004be9: 0f 1f 80 00 00 00 00        	nopl	(%rax)

0000000100004bf0 __ZNSt3__112basic_stringIcNS_11char_traitsIcEENS_9allocatorIcEEEC2Emc:
100004bf0: 55                          	pushq	%rbp
100004bf1: 48 89 e5                    	movq	%rsp, %rbp
100004bf4: 48 83 ec 30                 	subq	$48, %rsp
100004bf8: 48 89 7d f8                 	movq	%rdi, -8(%rbp)
100004bfc: 48 89 75 f0                 	movq	%rsi, -16(%rbp)
100004c00: 88 55 ef                    	movb	%dl, -17(%rbp)
100004c03: 48 8b 45 f8                 	movq	-8(%rbp), %rax
100004c07: 48 89 c7                    	movq	%rax, %rdi
100004c0a: 48 8d 75 e8                 	leaq	-24(%rbp), %rsi
100004c0e: 48 8d 55 e0                 	leaq	-32(%rbp), %rdx
100004c12: 48 89 45 d8                 	movq	%rax, -40(%rbp)
100004c16: e8 25 00 00 00              	callq	37 <__ZNSt3__117__compressed_pairINS_12basic_stringIcNS_11char_traitsIcEENS_9allocatorIcEEE5__repES5_EC1INS_18__default_init_tagESA_EEOT_OT0_>
100004c1b: 48 8b 75 f0                 	movq	-16(%rbp), %rsi
100004c1f: 48 8b 7d d8                 	movq	-40(%rbp), %rdi
100004c23: 0f be 55 ef                 	movsbl	-17(%rbp), %edx
100004c27: e8 52 2d 00 00              	callq	11602 <dyld_stub_binder+0x10000797e>
100004c2c: 48 83 c4 30                 	addq	$48, %rsp
100004c30: 5d                          	popq	%rbp
100004c31: c3                          	retq
100004c32: 66 2e 0f 1f 84 00 00 00 00 00       	nopw	%cs:(%rax,%rax)
100004c3c: 0f 1f 40 00                 	nopl	(%rax)

0000000100004c40 __ZNSt3__117__compressed_pairINS_12basic_stringIcNS_11char_traitsIcEENS_9allocatorIcEEE5__repES5_EC1INS_18__default_init_tagESA_EEOT_OT0_:
100004c40: 55                          	pushq	%rbp
100004c41: 48 89 e5                    	movq	%rsp, %rbp
100004c44: 48 83 ec 20                 	subq	$32, %rsp
100004c48: 48 89 7d f8                 	movq	%rdi, -8(%rbp)
100004c4c: 48 89 75 f0                 	movq	%rsi, -16(%rbp)
100004c50: 48 89 55 e8                 	movq	%rdx, -24(%rbp)
100004c54: 48 8b 7d f8                 	movq	-8(%rbp), %rdi
100004c58: 48 8b 75 f0                 	movq	-16(%rbp), %rsi
100004c5c: 48 8b 55 e8                 	movq	-24(%rbp), %rdx
100004c60: e8 0b 00 00 00              	callq	11 <__ZNSt3__117__compressed_pairINS_12basic_stringIcNS_11char_traitsIcEENS_9allocatorIcEEE5__repES5_EC2INS_18__default_init_tagESA_EEOT_OT0_>
100004c65: 48 83 c4 20                 	addq	$32, %rsp
100004c69: 5d                          	popq	%rbp
100004c6a: c3                          	retq
100004c6b: 0f 1f 44 00 00              	nopl	(%rax,%rax)

0000000100004c70 __ZNSt3__117__compressed_pairINS_12basic_stringIcNS_11char_traitsIcEENS_9allocatorIcEEE5__repES5_EC2INS_18__default_init_tagESA_EEOT_OT0_:
100004c70: 55                          	pushq	%rbp
100004c71: 48 89 e5                    	movq	%rsp, %rbp
100004c74: 48 83 ec 50                 	subq	$80, %rsp
100004c78: 48 89 7d f8                 	movq	%rdi, -8(%rbp)
100004c7c: 48 89 75 f0                 	movq	%rsi, -16(%rbp)
100004c80: 48 89 55 e8                 	movq	%rdx, -24(%rbp)
100004c84: 48 8b 45 f8                 	movq	-8(%rbp), %rax
100004c88: 48 89 c1                    	movq	%rax, %rcx
100004c8b: 48 8b 7d f0                 	movq	-16(%rbp), %rdi
100004c8f: 48 89 45 d0                 	movq	%rax, -48(%rbp)
100004c93: 48 89 4d c8                 	movq	%rcx, -56(%rbp)
100004c97: e8 34 00 00 00              	callq	52 <__ZNSt3__1L7forwardINS_18__default_init_tagEEEOT_RNS_16remove_referenceIS2_E4typeE>
100004c9c: 48 8b 7d c8                 	movq	-56(%rbp), %rdi
100004ca0: 48 89 45 c0                 	movq	%rax, -64(%rbp)
100004ca4: e8 37 00 00 00              	callq	55 <__ZNSt3__122__compressed_pair_elemINS_12basic_stringIcNS_11char_traitsIcEENS_9allocatorIcEEE5__repELi0ELb0EEC2ENS_18__default_init_tagE>
100004ca9: 48 8b 45 d0                 	movq	-48(%rbp), %rax
100004cad: 48 8b 7d e8                 	movq	-24(%rbp), %rdi
100004cb1: 48 89 45 b8                 	movq	%rax, -72(%rbp)
100004cb5: e8 16 00 00 00              	callq	22 <__ZNSt3__1L7forwardINS_18__default_init_tagEEEOT_RNS_16remove_referenceIS2_E4typeE>
100004cba: 48 8b 7d b8                 	movq	-72(%rbp), %rdi
100004cbe: 48 89 45 b0                 	movq	%rax, -80(%rbp)
100004cc2: e8 29 00 00 00              	callq	41 <__ZNSt3__122__compressed_pair_elemINS_9allocatorIcEELi1ELb1EEC2ENS_18__default_init_tagE>
100004cc7: 48 83 c4 50                 	addq	$80, %rsp
100004ccb: 5d                          	popq	%rbp
100004ccc: c3                          	retq
100004ccd: 0f 1f 00                    	nopl	(%rax)

0000000100004cd0 __ZNSt3__1L7forwardINS_18__default_init_tagEEEOT_RNS_16remove_referenceIS2_E4typeE:
100004cd0: 55                          	pushq	%rbp
100004cd1: 48 89 e5                    	movq	%rsp, %rbp
100004cd4: 48 89 7d f8                 	movq	%rdi, -8(%rbp)
100004cd8: 48 8b 45 f8                 	movq	-8(%rbp), %rax
100004cdc: 5d                          	popq	%rbp
100004cdd: c3                          	retq
100004cde: 66 90                       	nop

0000000100004ce0 __ZNSt3__122__compressed_pair_elemINS_12basic_stringIcNS_11char_traitsIcEENS_9allocatorIcEEE5__repELi0ELb0EEC2ENS_18__default_init_tagE:
100004ce0: 55                          	pushq	%rbp
100004ce1: 48 89 e5                    	movq	%rsp, %rbp
100004ce4: 48 89 7d f0                 	movq	%rdi, -16(%rbp)
100004ce8: 5d                          	popq	%rbp
100004ce9: c3                          	retq
100004cea: 66 0f 1f 44 00 00           	nopw	(%rax,%rax)

0000000100004cf0 __ZNSt3__122__compressed_pair_elemINS_9allocatorIcEELi1ELb1EEC2ENS_18__default_init_tagE:
100004cf0: 55                          	pushq	%rbp
100004cf1: 48 89 e5                    	movq	%rsp, %rbp
100004cf4: 48 83 ec 10                 	subq	$16, %rsp
100004cf8: 48 89 7d f0                 	movq	%rdi, -16(%rbp)
100004cfc: 48 8b 45 f0                 	movq	-16(%rbp), %rax
100004d00: 48 89 c7                    	movq	%rax, %rdi
100004d03: e8 08 00 00 00              	callq	8 <__ZNSt3__19allocatorIcEC2Ev>
100004d08: 48 83 c4 10                 	addq	$16, %rsp
100004d0c: 5d                          	popq	%rbp
100004d0d: c3                          	retq
100004d0e: 66 90                       	nop

0000000100004d10 __ZNSt3__19allocatorIcEC2Ev:
100004d10: 55                          	pushq	%rbp
100004d11: 48 89 e5                    	movq	%rsp, %rbp
100004d14: 48 89 7d f8                 	movq	%rdi, -8(%rbp)
100004d18: 5d                          	popq	%rbp
100004d19: c3                          	retq
100004d1a: 66 0f 1f 44 00 00           	nopw	(%rax,%rax)

0000000100004d20 __ZNSt3__1L12__to_addressIKcEEPT_S3_:
100004d20: 55                          	pushq	%rbp
100004d21: 48 89 e5                    	movq	%rsp, %rbp
100004d24: 48 89 7d f8                 	movq	%rdi, -8(%rbp)
100004d28: 48 8b 45 f8                 	movq	-8(%rbp), %rax
100004d2c: 5d                          	popq	%rbp
100004d2d: c3                          	retq
100004d2e: 66 90                       	nop

0000000100004d30 __ZNKSt3__112basic_stringIcNS_11char_traitsIcEENS_9allocatorIcEEE13__get_pointerEv:
100004d30: 55                          	pushq	%rbp
100004d31: 48 89 e5                    	movq	%rsp, %rbp
100004d34: 48 83 ec 20                 	subq	$32, %rsp
100004d38: 48 89 7d f8                 	movq	%rdi, -8(%rbp)
100004d3c: 48 8b 45 f8                 	movq	-8(%rbp), %rax
100004d40: 48 89 c7                    	movq	%rax, %rdi
100004d43: 48 89 45 f0                 	movq	%rax, -16(%rbp)
100004d47: e8 44 00 00 00              	callq	68 <__ZNKSt3__112basic_stringIcNS_11char_traitsIcEENS_9allocatorIcEEE9__is_longEv>
100004d4c: a8 01                       	testb	$1, %al
100004d4e: 0f 85 05 00 00 00           	jne	5 <__ZNKSt3__112basic_stringIcNS_11char_traitsIcEENS_9allocatorIcEEE13__get_pointerEv+0x29>
100004d54: e9 12 00 00 00              	jmp	18 <__ZNKSt3__112basic_stringIcNS_11char_traitsIcEENS_9allocatorIcEEE13__get_pointerEv+0x3b>
100004d59: 48 8b 7d f0                 	movq	-16(%rbp), %rdi
100004d5d: e8 6e 00 00 00              	callq	110 <__ZNKSt3__112basic_stringIcNS_11char_traitsIcEENS_9allocatorIcEEE18__get_long_pointerEv>
100004d62: 48 89 45 e8                 	movq	%rax, -24(%rbp)
100004d66: e9 0d 00 00 00              	jmp	13 <__ZNKSt3__112basic_stringIcNS_11char_traitsIcEENS_9allocatorIcEEE13__get_pointerEv+0x48>
100004d6b: 48 8b 7d f0                 	movq	-16(%rbp), %rdi
100004d6f: e8 7c 00 00 00              	callq	124 <__ZNKSt3__112basic_stringIcNS_11char_traitsIcEENS_9allocatorIcEEE19__get_short_pointerEv>
100004d74: 48 89 45 e8                 	movq	%rax, -24(%rbp)
100004d78: 48 8b 45 e8                 	movq	-24(%rbp), %rax
100004d7c: 48 83 c4 20                 	addq	$32, %rsp
100004d80: 5d                          	popq	%rbp
100004d81: c3                          	retq
100004d82: 66 2e 0f 1f 84 00 00 00 00 00       	nopw	%cs:(%rax,%rax)
100004d8c: 0f 1f 40 00                 	nopl	(%rax)

0000000100004d90 __ZNKSt3__112basic_stringIcNS_11char_traitsIcEENS_9allocatorIcEEE9__is_longEv:
100004d90: 55                          	pushq	%rbp
100004d91: 48 89 e5                    	movq	%rsp, %rbp
100004d94: 48 83 ec 10                 	subq	$16, %rsp
100004d98: 48 89 7d f8                 	movq	%rdi, -8(%rbp)
100004d9c: 48 8b 7d f8                 	movq	-8(%rbp), %rdi
100004da0: e8 7b 00 00 00              	callq	123 <__ZNKSt3__117__compressed_pairINS_12basic_stringIcNS_11char_traitsIcEENS_9allocatorIcEEE5__repES5_E5firstEv>
100004da5: 0f b6 08                    	movzbl	(%rax), %ecx
100004da8: 89 c8                       	movl	%ecx, %eax
100004daa: 48 25 01 00 00 00           	andq	$1, %rax
100004db0: 48 83 f8 00                 	cmpq	$0, %rax
100004db4: 0f 95 c2                    	setne	%dl
100004db7: 80 e2 01                    	andb	$1, %dl
100004dba: 0f b6 c2                    	movzbl	%dl, %eax
100004dbd: 48 83 c4 10                 	addq	$16, %rsp
100004dc1: 5d                          	popq	%rbp
100004dc2: c3                          	retq
100004dc3: 66 2e 0f 1f 84 00 00 00 00 00       	nopw	%cs:(%rax,%rax)
100004dcd: 0f 1f 00                    	nopl	(%rax)

0000000100004dd0 __ZNKSt3__112basic_stringIcNS_11char_traitsIcEENS_9allocatorIcEEE18__get_long_pointerEv:
100004dd0: 55                          	pushq	%rbp
100004dd1: 48 89 e5                    	movq	%rsp, %rbp
100004dd4: 48 83 ec 10                 	subq	$16, %rsp
100004dd8: 48 89 7d f8                 	movq	%rdi, -8(%rbp)
100004ddc: 48 8b 7d f8                 	movq	-8(%rbp), %rdi
100004de0: e8 3b 00 00 00              	callq	59 <__ZNKSt3__117__compressed_pairINS_12basic_stringIcNS_11char_traitsIcEENS_9allocatorIcEEE5__repES5_E5firstEv>
100004de5: 48 8b 40 10                 	movq	16(%rax), %rax
100004de9: 48 83 c4 10                 	addq	$16, %rsp
100004ded: 5d                          	popq	%rbp
100004dee: c3                          	retq
100004def: 90                          	nop

0000000100004df0 __ZNKSt3__112basic_stringIcNS_11char_traitsIcEENS_9allocatorIcEEE19__get_short_pointerEv:
100004df0: 55                          	pushq	%rbp
100004df1: 48 89 e5                    	movq	%rsp, %rbp
100004df4: 48 83 ec 10                 	subq	$16, %rsp
100004df8: 48 89 7d f8                 	movq	%rdi, -8(%rbp)
100004dfc: 48 8b 7d f8                 	movq	-8(%rbp), %rdi
100004e00: e8 1b 00 00 00              	callq	27 <__ZNKSt3__117__compressed_pairINS_12basic_stringIcNS_11char_traitsIcEENS_9allocatorIcEEE5__repES5_E5firstEv>
100004e05: 48 05 01 00 00 00           	addq	$1, %rax
100004e0b: 48 89 c7                    	movq	%rax, %rdi
100004e0e: e8 3d 00 00 00              	callq	61 <__ZNSt3__114pointer_traitsIPKcE10pointer_toERS1_>
100004e13: 48 83 c4 10                 	addq	$16, %rsp
100004e17: 5d                          	popq	%rbp
100004e18: c3                          	retq
100004e19: 0f 1f 80 00 00 00 00        	nopl	(%rax)

0000000100004e20 __ZNKSt3__117__compressed_pairINS_12basic_stringIcNS_11char_traitsIcEENS_9allocatorIcEEE5__repES5_E5firstEv:
100004e20: 55                          	pushq	%rbp
100004e21: 48 89 e5                    	movq	%rsp, %rbp
100004e24: 48 83 ec 10                 	subq	$16, %rsp
100004e28: 48 89 7d f8                 	movq	%rdi, -8(%rbp)
100004e2c: 48 8b 45 f8                 	movq	-8(%rbp), %rax
100004e30: 48 89 c7                    	movq	%rax, %rdi
100004e33: e8 08 00 00 00              	callq	8 <__ZNKSt3__122__compressed_pair_elemINS_12basic_stringIcNS_11char_traitsIcEENS_9allocatorIcEEE5__repELi0ELb0EE5__getEv>
100004e38: 48 83 c4 10                 	addq	$16, %rsp
100004e3c: 5d                          	popq	%rbp
100004e3d: c3                          	retq
100004e3e: 66 90                       	nop

0000000100004e40 __ZNKSt3__122__compressed_pair_elemINS_12basic_stringIcNS_11char_traitsIcEENS_9allocatorIcEEE5__repELi0ELb0EE5__getEv:
100004e40: 55                          	pushq	%rbp
100004e41: 48 89 e5                    	movq	%rsp, %rbp
100004e44: 48 89 7d f8                 	movq	%rdi, -8(%rbp)
100004e48: 48 8b 45 f8                 	movq	-8(%rbp), %rax
100004e4c: 5d                          	popq	%rbp
100004e4d: c3                          	retq
100004e4e: 66 90                       	nop

0000000100004e50 __ZNSt3__114pointer_traitsIPKcE10pointer_toERS1_:
100004e50: 55                          	pushq	%rbp
100004e51: 48 89 e5                    	movq	%rsp, %rbp
100004e54: 48 83 ec 10                 	subq	$16, %rsp
100004e58: 48 89 7d f8                 	movq	%rdi, -8(%rbp)
100004e5c: 48 8b 7d f8                 	movq	-8(%rbp), %rdi
100004e60: e8 0b 00 00 00              	callq	11 <__ZNSt3__1L9addressofIKcEEPT_RS2_>
100004e65: 48 83 c4 10                 	addq	$16, %rsp
100004e69: 5d                          	popq	%rbp
100004e6a: c3                          	retq
100004e6b: 0f 1f 44 00 00              	nopl	(%rax,%rax)

0000000100004e70 __ZNSt3__1L9addressofIKcEEPT_RS2_:
100004e70: 55                          	pushq	%rbp
100004e71: 48 89 e5                    	movq	%rsp, %rbp
100004e74: 48 89 7d f8                 	movq	%rdi, -8(%rbp)
100004e78: 48 8b 45 f8                 	movq	-8(%rbp), %rax
100004e7c: 5d                          	popq	%rbp
100004e7d: c3                          	retq
100004e7e: 66 90                       	nop

0000000100004e80 __ZNSt3__119ostreambuf_iteratorIcNS_11char_traitsIcEEEC2ERNS_13basic_ostreamIcS2_EE:
100004e80: 55                          	pushq	%rbp
100004e81: 48 89 e5                    	movq	%rsp, %rbp
100004e84: 48 83 ec 30                 	subq	$48, %rsp
100004e88: 48 89 7d f8                 	movq	%rdi, -8(%rbp)
100004e8c: 48 89 75 f0                 	movq	%rsi, -16(%rbp)
100004e90: 48 8b 45 f8                 	movq	-8(%rbp), %rax
100004e94: 48 8b 4d f0                 	movq	-16(%rbp), %rcx
100004e98: 48 8b 11                    	movq	(%rcx), %rdx
100004e9b: 48 8b 52 e8                 	movq	-24(%rdx), %rdx
100004e9f: 48 01 d1                    	addq	%rdx, %rcx
100004ea2: 48 89 cf                    	movq	%rcx, %rdi
100004ea5: 48 89 45 d8                 	movq	%rax, -40(%rbp)
100004ea9: e8 32 00 00 00              	callq	50 <__ZNKSt3__19basic_iosIcNS_11char_traitsIcEEE5rdbufEv>
100004eae: 48 89 45 d0                 	movq	%rax, -48(%rbp)
100004eb2: e9 00 00 00 00              	jmp	0 <__ZNSt3__119ostreambuf_iteratorIcNS_11char_traitsIcEEEC2ERNS_13basic_ostreamIcS2_EE+0x37>
100004eb7: 48 8b 45 d8                 	movq	-40(%rbp), %rax
100004ebb: 48 8b 4d d0                 	movq	-48(%rbp), %rcx
100004ebf: 48 89 08                    	movq	%rcx, (%rax)
100004ec2: 48 83 c4 30                 	addq	$48, %rsp
100004ec6: 5d                          	popq	%rbp
100004ec7: c3                          	retq
100004ec8: 48 89 45 e8                 	movq	%rax, -24(%rbp)
100004ecc: 89 55 e4                    	movl	%edx, -28(%rbp)
100004ecf: 48 8b 7d e8                 	movq	-24(%rbp), %rdi
100004ed3: e8 36 2b 00 00              	callq	11062 <dyld_stub_binder+0x100007a0e>
100004ed8: 0f 1f 84 00 00 00 00 00     	nopl	(%rax,%rax)

0000000100004ee0 __ZNKSt3__19basic_iosIcNS_11char_traitsIcEEE5rdbufEv:
100004ee0: 55                          	pushq	%rbp
100004ee1: 48 89 e5                    	movq	%rsp, %rbp
100004ee4: 48 83 ec 10                 	subq	$16, %rsp
100004ee8: 48 89 7d f8                 	movq	%rdi, -8(%rbp)
100004eec: 48 8b 45 f8                 	movq	-8(%rbp), %rax
100004ef0: 48 89 c7                    	movq	%rax, %rdi
100004ef3: e8 08 00 00 00              	callq	8 <__ZNKSt3__18ios_base5rdbufEv>
100004ef8: 48 83 c4 10                 	addq	$16, %rsp
100004efc: 5d                          	popq	%rbp
100004efd: c3                          	retq
100004efe: 66 90                       	nop

0000000100004f00 __ZNKSt3__18ios_base5rdbufEv:
100004f00: 55                          	pushq	%rbp
100004f01: 48 89 e5                    	movq	%rsp, %rbp
100004f04: 48 89 7d f8                 	movq	%rdi, -8(%rbp)
100004f08: 48 8b 45 f8                 	movq	-8(%rbp), %rax
100004f0c: 48 8b 40 28                 	movq	40(%rax), %rax
100004f10: 5d                          	popq	%rbp
100004f11: c3                          	retq
100004f12: 66 2e 0f 1f 84 00 00 00 00 00       	nopw	%cs:(%rax,%rax)
100004f1c: 0f 1f 40 00                 	nopl	(%rax)

0000000100004f20 __ZNSt3__111char_traitsIcE11eq_int_typeEii:
100004f20: 55                          	pushq	%rbp
100004f21: 48 89 e5                    	movq	%rsp, %rbp
100004f24: 89 7d fc                    	movl	%edi, -4(%rbp)
100004f27: 89 75 f8                    	movl	%esi, -8(%rbp)
100004f2a: 8b 45 fc                    	movl	-4(%rbp), %eax
100004f2d: 3b 45 f8                    	cmpl	-8(%rbp), %eax
100004f30: 0f 94 c1                    	sete	%cl
100004f33: 80 e1 01                    	andb	$1, %cl
100004f36: 0f b6 c1                    	movzbl	%cl, %eax
100004f39: 5d                          	popq	%rbp
100004f3a: c3                          	retq
100004f3b: 0f 1f 44 00 00              	nopl	(%rax,%rax)

0000000100004f40 __ZNSt3__111char_traitsIcE3eofEv:
100004f40: 55                          	pushq	%rbp
100004f41: 48 89 e5                    	movq	%rsp, %rbp
100004f44: b8 ff ff ff ff              	movl	$4294967295, %eax
100004f49: 5d                          	popq	%rbp
100004f4a: c3                          	retq
100004f4b: 0f 1f 44 00 00              	nopl	(%rax,%rax)

0000000100004f50 __ZNKSt3__19basic_iosIcNS_11char_traitsIcEEE5widenEc:
100004f50: 55                          	pushq	%rbp
100004f51: 48 89 e5                    	movq	%rsp, %rbp
100004f54: 48 83 ec 50                 	subq	$80, %rsp
100004f58: 48 89 7d f8                 	movq	%rdi, -8(%rbp)
100004f5c: 40 88 75 f7                 	movb	%sil, -9(%rbp)
100004f60: 48 8b 75 f8                 	movq	-8(%rbp), %rsi
100004f64: 48 8d 45 e8                 	leaq	-24(%rbp), %rax
100004f68: 48 89 c7                    	movq	%rax, %rdi
100004f6b: 48 89 45 d0                 	movq	%rax, -48(%rbp)
100004f6f: e8 ec 29 00 00              	callq	10732 <dyld_stub_binder+0x100007960>
100004f74: 48 8b 7d d0                 	movq	-48(%rbp), %rdi
100004f78: e8 73 00 00 00              	callq	115 <__ZNSt3__1L9use_facetINS_5ctypeIcEEEERKT_RKNS_6localeE>
100004f7d: 48 89 45 c8                 	movq	%rax, -56(%rbp)
100004f81: e9 00 00 00 00              	jmp	0 <__ZNKSt3__19basic_iosIcNS_11char_traitsIcEEE5widenEc+0x36>
100004f86: 0f be 75 f7                 	movsbl	-9(%rbp), %esi
100004f8a: 48 8b 7d c8                 	movq	-56(%rbp), %rdi
100004f8e: e8 8d 00 00 00              	callq	141 <__ZNKSt3__15ctypeIcE5widenEc>
100004f93: 88 45 c7                    	movb	%al, -57(%rbp)
100004f96: e9 00 00 00 00              	jmp	0 <__ZNKSt3__19basic_iosIcNS_11char_traitsIcEEE5widenEc+0x4b>
100004f9b: 48 8d 7d e8                 	leaq	-24(%rbp), %rdi
100004f9f: e8 16 2a 00 00              	callq	10774 <dyld_stub_binder+0x1000079ba>
100004fa4: 8a 45 c7                    	movb	-57(%rbp), %al
100004fa7: 0f be c0                    	movsbl	%al, %eax
100004faa: 48 83 c4 50                 	addq	$80, %rsp
100004fae: 5d                          	popq	%rbp
100004faf: c3                          	retq
100004fb0: 48 89 45 e0                 	movq	%rax, -32(%rbp)
100004fb4: 89 55 dc                    	movl	%edx, -36(%rbp)
100004fb7: 48 8d 7d e8                 	leaq	-24(%rbp), %rdi
100004fbb: e8 fa 29 00 00              	callq	10746 <dyld_stub_binder+0x1000079ba>
100004fc0: e9 00 00 00 00              	jmp	0 <__ZNKSt3__19basic_iosIcNS_11char_traitsIcEEE5widenEc+0x75>
100004fc5: e9 00 00 00 00              	jmp	0 <__ZNKSt3__19basic_iosIcNS_11char_traitsIcEEE5widenEc+0x7a>
100004fca: 48 8b 7d e0                 	movq	-32(%rbp), %rdi
100004fce: e8 6f 29 00 00              	callq	10607 <dyld_stub_binder+0x100007942>
100004fd3: 0f 0b                       	ud2
100004fd5: 48 89 c7                    	movq	%rax, %rdi
100004fd8: 48 89 55 b8                 	movq	%rdx, -72(%rbp)
100004fdc: e8 8f fa ff ff              	callq	-1393 <___clang_call_terminate>
100004fe1: 66 2e 0f 1f 84 00 00 00 00 00       	nopw	%cs:(%rax,%rax)
100004feb: 0f 1f 44 00 00              	nopl	(%rax,%rax)

0000000100004ff0 __ZNSt3__1L9use_facetINS_5ctypeIcEEEERKT_RKNS_6localeE:
100004ff0: 55                          	pushq	%rbp
100004ff1: 48 89 e5                    	movq	%rsp, %rbp
100004ff4: 48 83 ec 10                 	subq	$16, %rsp
100004ff8: 48 8b 35 11 30 00 00        	movq	12305(%rip), %rsi
100004fff: 48 89 7d f8                 	movq	%rdi, -8(%rbp)
100005003: 48 8b 7d f8                 	movq	-8(%rbp), %rdi
100005007: e8 42 29 00 00              	callq	10562 <dyld_stub_binder+0x10000794e>
10000500c: 48 83 c4 10                 	addq	$16, %rsp
100005010: 5d                          	popq	%rbp
100005011: c3                          	retq
100005012: 66 2e 0f 1f 84 00 00 00 00 00       	nopw	%cs:(%rax,%rax)
10000501c: 0f 1f 40 00                 	nopl	(%rax)

0000000100005020 __ZNKSt3__15ctypeIcE5widenEc:
100005020: 55                          	pushq	%rbp
100005021: 48 89 e5                    	movq	%rsp, %rbp
100005024: 48 83 ec 10                 	subq	$16, %rsp
100005028: 48 89 7d f8                 	movq	%rdi, -8(%rbp)
10000502c: 40 88 75 f7                 	movb	%sil, -9(%rbp)
100005030: 48 8b 45 f8                 	movq	-8(%rbp), %rax
100005034: 8a 4d f7                    	movb	-9(%rbp), %cl
100005037: 48 8b 10                    	movq	(%rax), %rdx
10000503a: 48 89 c7                    	movq	%rax, %rdi
10000503d: 0f be f1                    	movsbl	%cl, %esi
100005040: ff 52 38                    	callq	*56(%rdx)
100005043: 0f be c0                    	movsbl	%al, %eax
100005046: 48 83 c4 10                 	addq	$16, %rsp
10000504a: 5d                          	popq	%rbp
10000504b: c3                          	retq
10000504c: 0f 1f 40 00                 	nopl	(%rax)

0000000100005050 __ZNSt3__18ios_base8setstateEj:
100005050: 55                          	pushq	%rbp
100005051: 48 89 e5                    	movq	%rsp, %rbp
100005054: 48 83 ec 10                 	subq	$16, %rsp
100005058: 48 89 7d f8                 	movq	%rdi, -8(%rbp)
10000505c: 89 75 f4                    	movl	%esi, -12(%rbp)
10000505f: 48 8b 45 f8                 	movq	-8(%rbp), %rax
100005063: 8b 48 20                    	movl	32(%rax), %ecx
100005066: 0b 4d f4                    	orl	-12(%rbp), %ecx
100005069: 48 89 c7                    	movq	%rax, %rdi
10000506c: 89 ce                       	movl	%ecx, %esi
10000506e: e8 6b 29 00 00              	callq	10603 <dyld_stub_binder+0x1000079de>
100005073: 48 83 c4 10                 	addq	$16, %rsp
100005077: 5d                          	popq	%rbp
100005078: c3                          	retq
100005079: 90                          	nop
10000507a: 90                          	nop
10000507b: 90                          	nop
10000507c: 90                          	nop
10000507d: 90                          	nop
10000507e: 90                          	nop
10000507f: 90                          	nop

0000000100005080 _main:
100005080: 55                          	pushq	%rbp
100005081: 48 89 e5                    	movq	%rsp, %rbp
100005084: 48 81 ec b0 02 00 00        	subq	$688, %rsp
10000508b: 48 8b 05 9e 2f 00 00        	movq	12190(%rip), %rax
100005092: 48 8b 00                    	movq	(%rax), %rax
100005095: 48 89 45 f8                 	movq	%rax, -8(%rbp)
100005099: c7 45 8c 00 00 00 00        	movl	$0, -116(%rbp)
1000050a0: 0f 28 05 a9 2d 00 00        	movaps	11689(%rip), %xmm0
1000050a7: 0f 29 45 e0                 	movaps	%xmm0, -32(%rbp)
1000050ab: 0f 28 05 8e 2d 00 00        	movaps	11662(%rip), %xmm0
1000050b2: 0f 29 45 d0                 	movaps	%xmm0, -48(%rbp)
1000050b6: 48 c7 45 80 08 00 00 00     	movq	$8, -128(%rbp)
1000050be: 48 8d 55 f0                 	leaq	-16(%rbp), %rdx
1000050c2: 48 8d 85 68 ff ff ff        	leaq	-152(%rbp), %rax
1000050c9: 48 8d 75 d0                 	leaq	-48(%rbp), %rsi
1000050cd: 48 89 c7                    	movq	%rax, %rdi
1000050d0: 48 89 85 00 fe ff ff        	movq	%rax, -512(%rbp)
1000050d7: e8 34 06 00 00              	callq	1588 <__ZNSt3__16vectorI7AccountNS_9allocatorIS1_EEEC1IPKiEET_NS_9enable_ifIXaasr27__is_cpp17_forward_iteratorIS8_EE5valuesr16is_constructibleIS1_NS_15iterator_traitsIS8_E9referenceEEE5valueES8_E4typeE>
1000050dc: 48 8b bd 00 fe ff ff        	movq	-512(%rbp), %rdi
1000050e3: e8 58 06 00 00              	callq	1624 <__ZNSt3__16vectorI7AccountNS_9allocatorIS1_EEE5beginEv>
1000050e8: 48 89 85 60 ff ff ff        	movq	%rax, -160(%rbp)
1000050ef: 48 8b bd 00 fe ff ff        	movq	-512(%rbp), %rdi
1000050f6: e8 75 06 00 00              	callq	1653 <__ZNSt3__16vectorI7AccountNS_9allocatorIS1_EEE3endEv>
1000050fb: 48 89 85 58 ff ff ff        	movq	%rax, -168(%rbp)
100005102: 0f 28 05 67 2d 00 00        	movaps	11623(%rip), %xmm0
100005109: 0f 29 45 c0                 	movaps	%xmm0, -64(%rbp)
10000510d: 0f 28 05 4c 2d 00 00        	movaps	11596(%rip), %xmm0
100005114: 0f 29 45 b0                 	movaps	%xmm0, -80(%rbp)
100005118: 48 c7 85 50 ff ff ff 08 00 00 00    	movq	$8, -176(%rbp)
100005123: 48 8d 55 d0                 	leaq	-48(%rbp), %rdx
100005127: 48 8d bd 38 ff ff ff        	leaq	-200(%rbp), %rdi
10000512e: 48 8d 75 b0                 	leaq	-80(%rbp), %rsi
100005132: e8 69 06 00 00              	callq	1641 <__ZNSt3__16vectorIiNS_9allocatorIiEEEC1IPKiEET_NS_9enable_ifIXaasr27__is_cpp17_forward_iteratorIS7_EE5valuesr16is_constructibleIiNS_15iterator_traitsIS7_E9referenceEEE5valueES7_E4typeE>
100005137: e9 00 00 00 00              	jmp	0 <_main+0xbc>
10000513c: 48 8d 85 38 ff ff ff        	leaq	-200(%rbp), %rax
100005143: 48 89 c7                    	movq	%rax, %rdi
100005146: 48 89 85 f8 fd ff ff        	movq	%rax, -520(%rbp)
10000514d: e8 7e 06 00 00              	callq	1662 <__ZNSt3__16vectorIiNS_9allocatorIiEEE5beginEv>
100005152: 48 89 85 20 ff ff ff        	movq	%rax, -224(%rbp)
100005159: 48 8b bd f8 fd ff ff        	movq	-520(%rbp), %rdi
100005160: e8 9b 06 00 00              	callq	1691 <__ZNSt3__16vectorIiNS_9allocatorIiEEE3endEv>
100005165: 48 89 85 18 ff ff ff        	movq	%rax, -232(%rbp)
10000516c: 0f 28 05 1d 2d 00 00        	movaps	11549(%rip), %xmm0
100005173: 0f 29 45 a0                 	movaps	%xmm0, -96(%rbp)
100005177: 0f 28 05 02 2d 00 00        	movaps	11522(%rip), %xmm0
10000517e: 0f 29 45 90                 	movaps	%xmm0, -112(%rbp)
100005182: 48 c7 85 10 ff ff ff 08 00 00 00    	movq	$8, -240(%rbp)
10000518d: 48 8d 55 b0                 	leaq	-80(%rbp), %rdx
100005191: 48 8d bd f8 fe ff ff        	leaq	-264(%rbp), %rdi
100005198: 48 8d 75 90                 	leaq	-112(%rbp), %rsi
10000519c: e8 ff 05 00 00              	callq	1535 <__ZNSt3__16vectorIiNS_9allocatorIiEEEC1IPKiEET_NS_9enable_ifIXaasr27__is_cpp17_forward_iteratorIS7_EE5valuesr16is_constructibleIiNS_15iterator_traitsIS7_E9referenceEEE5valueES7_E4typeE>
1000051a1: e9 00 00 00 00              	jmp	0 <_main+0x126>
1000051a6: 48 8d 85 f8 fe ff ff        	leaq	-264(%rbp), %rax
1000051ad: 48 89 c7                    	movq	%rax, %rdi
1000051b0: 48 89 85 f0 fd ff ff        	movq	%rax, -528(%rbp)
1000051b7: e8 14 06 00 00              	callq	1556 <__ZNSt3__16vectorIiNS_9allocatorIiEEE5beginEv>
1000051bc: 48 89 85 f0 fe ff ff        	movq	%rax, -272(%rbp)
1000051c3: 48 8b bd f0 fd ff ff        	movq	-528(%rbp), %rdi
1000051ca: e8 31 06 00 00              	callq	1585 <__ZNSt3__16vectorIiNS_9allocatorIiEEE3endEv>
1000051cf: 48 89 85 e8 fe ff ff        	movq	%rax, -280(%rbp)
1000051d6: e8 75 ed ff ff              	callq	-4747 <__ZN7Account20displayAccountsInfosEv>
1000051db: e9 00 00 00 00              	jmp	0 <_main+0x160>
1000051e0: 48 8b 85 60 ff ff ff        	movq	-160(%rbp), %rax
1000051e7: 48 89 85 e0 fe ff ff        	movq	%rax, -288(%rbp)
1000051ee: 48 8b 85 58 ff ff ff        	movq	-168(%rbp), %rax
1000051f5: 48 89 85 d8 fe ff ff        	movq	%rax, -296(%rbp)
1000051fc: 48 8d 05 7d f1 ff ff        	leaq	-3715(%rip), %rax
100005203: 48 89 85 b8 fe ff ff        	movq	%rax, -328(%rbp)
10000520a: 48 c7 85 c0 fe ff ff 00 00 00 00    	movq	$0, -320(%rbp)
100005215: 48 8b bd b8 fe ff ff        	movq	-328(%rbp), %rdi
10000521c: 48 8b b5 c0 fe ff ff        	movq	-320(%rbp), %rsi
100005223: e8 88 06 00 00              	callq	1672 <__ZNSt3__1L11mem_fun_refIv7AccountEENS_19const_mem_fun_ref_tIT_T0_EEMS4_KFS3_vE>
100005228: 48 89 95 e8 fd ff ff        	movq	%rdx, -536(%rbp)
10000522f: 48 89 85 e0 fd ff ff        	movq	%rax, -544(%rbp)
100005236: e9 00 00 00 00              	jmp	0 <_main+0x1bb>
10000523b: 48 8b 85 e0 fd ff ff        	movq	-544(%rbp), %rax
100005242: 48 89 85 c8 fe ff ff        	movq	%rax, -312(%rbp)
100005249: 48 8b 8d e8 fd ff ff        	movq	-536(%rbp), %rcx
100005250: 48 89 8d d0 fe ff ff        	movq	%rcx, -304(%rbp)
100005257: 48 8b bd e0 fe ff ff        	movq	-288(%rbp), %rdi
10000525e: 48 8b b5 d8 fe ff ff        	movq	-296(%rbp), %rsi
100005265: 48 8b 95 c8 fe ff ff        	movq	-312(%rbp), %rdx
10000526c: 48 8b 8d d0 fe ff ff        	movq	-304(%rbp), %rcx
100005273: e8 b8 05 00 00              	callq	1464 <__ZNSt3__1L8for_eachINS_11__wrap_iterIP7AccountEENS_19const_mem_fun_ref_tIvS2_EEEET0_T_S8_S7_>
100005278: 48 89 95 d8 fd ff ff        	movq	%rdx, -552(%rbp)
10000527f: 48 89 85 d0 fd ff ff        	movq	%rax, -560(%rbp)
100005286: e9 00 00 00 00              	jmp	0 <_main+0x20b>
10000528b: 48 8b 85 d0 fd ff ff        	movq	-560(%rbp), %rax
100005292: 48 89 85 a8 fe ff ff        	movq	%rax, -344(%rbp)
100005299: 48 8b 8d d8 fd ff ff        	movq	-552(%rbp), %rcx
1000052a0: 48 89 8d b0 fe ff ff        	movq	%rcx, -336(%rbp)
1000052a7: 48 8d bd 98 fe ff ff        	leaq	-360(%rbp), %rdi
1000052ae: 48 8d b5 60 ff ff ff        	leaq	-160(%rbp), %rsi
1000052b5: 48 8d 95 20 ff ff ff        	leaq	-224(%rbp), %rdx
1000052bc: e8 3f 06 00 00              	callq	1599 <__ZNSt3__14pairINS_11__wrap_iterIP7AccountEENS1_IPiEEEC1ERKS4_RKS6_>
1000052c1: e9 00 00 00 00              	jmp	0 <_main+0x246>
1000052c6: e9 00 00 00 00              	jmp	0 <_main+0x24b>
1000052cb: 48 8d bd 98 fe ff ff        	leaq	-360(%rbp), %rdi
1000052d2: 48 8d b5 58 ff ff ff        	leaq	-168(%rbp), %rsi
1000052d9: e8 52 06 00 00              	callq	1618 <__ZNSt3__1neIP7AccountEEbRKNS_11__wrap_iterIT_EES7_>
1000052de: 31 c9                       	xorl	%ecx, %ecx
1000052e0: a8 01                       	testb	$1, %al
1000052e2: 88 8d cf fd ff ff           	movb	%cl, -561(%rbp)
1000052e8: 0f 85 05 00 00 00           	jne	5 <_main+0x273>
1000052ee: e9 22 00 00 00              	jmp	34 <_main+0x295>
1000052f3: 48 8d 85 98 fe ff ff        	leaq	-360(%rbp), %rax
1000052fa: 48 05 08 00 00 00           	addq	$8, %rax
100005300: 48 89 c7                    	movq	%rax, %rdi
100005303: 48 8d b5 18 ff ff ff        	leaq	-232(%rbp), %rsi
10000530a: e8 51 06 00 00              	callq	1617 <__ZNSt3__1neIPiEEbRKNS_11__wrap_iterIT_EES6_>
10000530f: 88 85 cf fd ff ff           	movb	%al, -561(%rbp)
100005315: 8a 85 cf fd ff ff           	movb	-561(%rbp), %al
10000531b: a8 01                       	testb	$1, %al
10000531d: 0f 85 05 00 00 00           	jne	5 <_main+0x2a8>
100005323: e9 a7 00 00 00              	jmp	167 <_main+0x34f>
100005328: 48 8d bd 98 fe ff ff        	leaq	-360(%rbp), %rdi
10000532f: e8 5c 06 00 00              	callq	1628 <__ZNKSt3__111__wrap_iterIP7AccountEdeEv>
100005334: 48 8d bd a0 fe ff ff        	leaq	-352(%rbp), %rdi
10000533b: 48 89 85 c0 fd ff ff        	movq	%rax, -576(%rbp)
100005342: e8 69 06 00 00              	callq	1641 <__ZNKSt3__111__wrap_iterIPiEdeEv>
100005347: 8b 30                       	movl	(%rax), %esi
100005349: 48 8b bd c0 fd ff ff        	movq	-576(%rbp), %rdi
100005350: e8 db ec ff ff              	callq	-4901 <__ZN7Account11makeDepositEi>
100005355: e9 00 00 00 00              	jmp	0 <_main+0x2da>
10000535a: e9 00 00 00 00              	jmp	0 <_main+0x2df>
10000535f: 48 8d bd 98 fe ff ff        	leaq	-360(%rbp), %rdi
100005366: e8 65 06 00 00              	callq	1637 <__ZNSt3__111__wrap_iterIP7AccountEppEv>
10000536b: 48 8d 8d 98 fe ff ff        	leaq	-360(%rbp), %rcx
100005372: 48 81 c1 08 00 00 00        	addq	$8, %rcx
100005379: 48 89 cf                    	movq	%rcx, %rdi
10000537c: 48 89 85 b8 fd ff ff        	movq	%rax, -584(%rbp)
100005383: e8 68 06 00 00              	callq	1640 <__ZNSt3__111__wrap_iterIPiEppEv>
100005388: e9 3e ff ff ff              	jmp	-194 <_main+0x24b>
10000538d: 48 89 85 30 ff ff ff        	movq	%rax, -208(%rbp)
100005394: 89 95 2c ff ff ff           	movl	%edx, -212(%rbp)
10000539a: e9 37 03 00 00              	jmp	823 <_main+0x656>
10000539f: 48 89 85 30 ff ff ff        	movq	%rax, -208(%rbp)
1000053a6: 89 95 2c ff ff ff           	movl	%edx, -212(%rbp)
1000053ac: e9 0f 03 00 00              	jmp	783 <_main+0x640>
1000053b1: 48 89 85 30 ff ff ff        	movq	%rax, -208(%rbp)
1000053b8: 89 95 2c ff ff ff           	movl	%edx, -212(%rbp)
1000053be: 48 8d bd f8 fe ff ff        	leaq	-264(%rbp), %rdi
1000053c5: e8 46 06 00 00              	callq	1606 <__ZNSt3__16vectorIiNS_9allocatorIiEEED1Ev>
1000053ca: e9 b1 02 00 00              	jmp	689 <_main+0x600>
1000053cf: e8 7c eb ff ff              	callq	-5252 <__ZN7Account20displayAccountsInfosEv>
1000053d4: e9 00 00 00 00              	jmp	0 <_main+0x359>
1000053d9: 48 8b 85 60 ff ff ff        	movq	-160(%rbp), %rax
1000053e0: 48 89 85 90 fe ff ff        	movq	%rax, -368(%rbp)
1000053e7: 48 8b 85 58 ff ff ff        	movq	-168(%rbp), %rax
1000053ee: 48 89 85 88 fe ff ff        	movq	%rax, -376(%rbp)
1000053f5: 48 8d 05 84 ef ff ff        	leaq	-4220(%rip), %rax
1000053fc: 48 89 85 68 fe ff ff        	movq	%rax, -408(%rbp)
100005403: 48 c7 85 70 fe ff ff 00 00 00 00    	movq	$0, -400(%rbp)
10000540e: 48 8b bd 68 fe ff ff        	movq	-408(%rbp), %rdi
100005415: 48 8b b5 70 fe ff ff        	movq	-400(%rbp), %rsi
10000541c: e8 8f 04 00 00              	callq	1167 <__ZNSt3__1L11mem_fun_refIv7AccountEENS_19const_mem_fun_ref_tIT_T0_EEMS4_KFS3_vE>
100005421: 48 89 95 b0 fd ff ff        	movq	%rdx, -592(%rbp)
100005428: 48 89 85 a8 fd ff ff        	movq	%rax, -600(%rbp)
10000542f: e9 00 00 00 00              	jmp	0 <_main+0x3b4>
100005434: 48 8b 85 a8 fd ff ff        	movq	-600(%rbp), %rax
10000543b: 48 89 85 78 fe ff ff        	movq	%rax, -392(%rbp)
100005442: 48 8b 8d b0 fd ff ff        	movq	-592(%rbp), %rcx
100005449: 48 89 8d 80 fe ff ff        	movq	%rcx, -384(%rbp)
100005450: 48 8b bd 90 fe ff ff        	movq	-368(%rbp), %rdi
100005457: 48 8b b5 88 fe ff ff        	movq	-376(%rbp), %rsi
10000545e: 48 8b 95 78 fe ff ff        	movq	-392(%rbp), %rdx
100005465: 48 8b 8d 80 fe ff ff        	movq	-384(%rbp), %rcx
10000546c: e8 bf 03 00 00              	callq	959 <__ZNSt3__1L8for_eachINS_11__wrap_iterIP7AccountEENS_19const_mem_fun_ref_tIvS2_EEEET0_T_S8_S7_>
100005471: 48 89 95 a0 fd ff ff        	movq	%rdx, -608(%rbp)
100005478: 48 89 85 98 fd ff ff        	movq	%rax, -616(%rbp)
10000547f: e9 00 00 00 00              	jmp	0 <_main+0x404>
100005484: 48 8b 85 98 fd ff ff        	movq	-616(%rbp), %rax
10000548b: 48 89 85 58 fe ff ff        	movq	%rax, -424(%rbp)
100005492: 48 8b 8d a0 fd ff ff        	movq	-608(%rbp), %rcx
100005499: 48 89 8d 60 fe ff ff        	movq	%rcx, -416(%rbp)
1000054a0: 48 8d bd 48 fe ff ff        	leaq	-440(%rbp), %rdi
1000054a7: 48 8d b5 60 ff ff ff        	leaq	-160(%rbp), %rsi
1000054ae: 48 8d 95 f0 fe ff ff        	leaq	-272(%rbp), %rdx
1000054b5: e8 46 04 00 00              	callq	1094 <__ZNSt3__14pairINS_11__wrap_iterIP7AccountEENS1_IPiEEEC1ERKS4_RKS6_>
1000054ba: e9 00 00 00 00              	jmp	0 <_main+0x43f>
1000054bf: e9 00 00 00 00              	jmp	0 <_main+0x444>
1000054c4: 48 8d bd 48 fe ff ff        	leaq	-440(%rbp), %rdi
1000054cb: 48 8d b5 58 ff ff ff        	leaq	-168(%rbp), %rsi
1000054d2: e8 59 04 00 00              	callq	1113 <__ZNSt3__1neIP7AccountEEbRKNS_11__wrap_iterIT_EES7_>
1000054d7: 31 c9                       	xorl	%ecx, %ecx
1000054d9: a8 01                       	testb	$1, %al
1000054db: 88 8d 97 fd ff ff           	movb	%cl, -617(%rbp)
1000054e1: 0f 85 05 00 00 00           	jne	5 <_main+0x46c>
1000054e7: e9 22 00 00 00              	jmp	34 <_main+0x48e>
1000054ec: 48 8d 85 48 fe ff ff        	leaq	-440(%rbp), %rax
1000054f3: 48 05 08 00 00 00           	addq	$8, %rax
1000054f9: 48 89 c7                    	movq	%rax, %rdi
1000054fc: 48 8d b5 e8 fe ff ff        	leaq	-280(%rbp), %rsi
100005503: e8 58 04 00 00              	callq	1112 <__ZNSt3__1neIPiEEbRKNS_11__wrap_iterIT_EES6_>
100005508: 88 85 97 fd ff ff           	movb	%al, -617(%rbp)
10000550e: 8a 85 97 fd ff ff           	movb	-617(%rbp), %al
100005514: a8 01                       	testb	$1, %al
100005516: 0f 85 05 00 00 00           	jne	5 <_main+0x4a1>
10000551c: e9 65 00 00 00              	jmp	101 <_main+0x506>
100005521: 48 8d bd 48 fe ff ff        	leaq	-440(%rbp), %rdi
100005528: e8 63 04 00 00              	callq	1123 <__ZNKSt3__111__wrap_iterIP7AccountEdeEv>
10000552d: 48 8d bd 50 fe ff ff        	leaq	-432(%rbp), %rdi
100005534: 48 89 85 88 fd ff ff        	movq	%rax, -632(%rbp)
10000553b: e8 70 04 00 00              	callq	1136 <__ZNKSt3__111__wrap_iterIPiEdeEv>
100005540: 8b 30                       	movl	(%rax), %esi
100005542: 48 8b bd 88 fd ff ff        	movq	-632(%rbp), %rdi
100005549: e8 22 ec ff ff              	callq	-5086 <__ZN7Account14makeWithdrawalEi>
10000554e: e9 00 00 00 00              	jmp	0 <_main+0x4d3>
100005553: e9 00 00 00 00              	jmp	0 <_main+0x4d8>
100005558: 48 8d bd 48 fe ff ff        	leaq	-440(%rbp), %rdi
10000555f: e8 6c 04 00 00              	callq	1132 <__ZNSt3__111__wrap_iterIP7AccountEppEv>
100005564: 48 8d 8d 48 fe ff ff        	leaq	-440(%rbp), %rcx
10000556b: 48 81 c1 08 00 00 00        	addq	$8, %rcx
100005572: 48 89 cf                    	movq	%rcx, %rdi
100005575: 48 89 85 80 fd ff ff        	movq	%rax, -640(%rbp)
10000557c: e8 6f 04 00 00              	callq	1135 <__ZNSt3__111__wrap_iterIPiEppEv>
100005581: e9 3e ff ff ff              	jmp	-194 <_main+0x444>
100005586: e8 c5 e9 ff ff              	callq	-5691 <__ZN7Account20displayAccountsInfosEv>
10000558b: e9 00 00 00 00              	jmp	0 <_main+0x510>
100005590: 48 8b 85 60 ff ff ff        	movq	-160(%rbp), %rax
100005597: 48 89 85 40 fe ff ff        	movq	%rax, -448(%rbp)
10000559e: 48 8b 85 58 ff ff ff        	movq	-168(%rbp), %rax
1000055a5: 48 89 85 38 fe ff ff        	movq	%rax, -456(%rbp)
1000055ac: 48 8d 05 cd ed ff ff        	leaq	-4659(%rip), %rax
1000055b3: 48 89 85 18 fe ff ff        	movq	%rax, -488(%rbp)
1000055ba: 48 c7 85 20 fe ff ff 00 00 00 00    	movq	$0, -480(%rbp)
1000055c5: 48 8b bd 18 fe ff ff        	movq	-488(%rbp), %rdi
1000055cc: 48 8b b5 20 fe ff ff        	movq	-480(%rbp), %rsi
1000055d3: e8 d8 02 00 00              	callq	728 <__ZNSt3__1L11mem_fun_refIv7AccountEENS_19const_mem_fun_ref_tIT_T0_EEMS4_KFS3_vE>
1000055d8: 48 89 95 78 fd ff ff        	movq	%rdx, -648(%rbp)
1000055df: 48 89 85 70 fd ff ff        	movq	%rax, -656(%rbp)
1000055e6: e9 00 00 00 00              	jmp	0 <_main+0x56b>
1000055eb: 48 8b 85 70 fd ff ff        	movq	-656(%rbp), %rax
1000055f2: 48 89 85 28 fe ff ff        	movq	%rax, -472(%rbp)
1000055f9: 48 8b 8d 78 fd ff ff        	movq	-648(%rbp), %rcx
100005600: 48 89 8d 30 fe ff ff        	movq	%rcx, -464(%rbp)
100005607: 48 8b bd 40 fe ff ff        	movq	-448(%rbp), %rdi
10000560e: 48 8b b5 38 fe ff ff        	movq	-456(%rbp), %rsi
100005615: 48 8b 95 28 fe ff ff        	movq	-472(%rbp), %rdx
10000561c: 48 8b 8d 30 fe ff ff        	movq	-464(%rbp), %rcx
100005623: e8 08 02 00 00              	callq	520 <__ZNSt3__1L8for_eachINS_11__wrap_iterIP7AccountEENS_19const_mem_fun_ref_tIvS2_EEEET0_T_S8_S7_>
100005628: 48 89 95 68 fd ff ff        	movq	%rdx, -664(%rbp)
10000562f: 48 89 85 60 fd ff ff        	movq	%rax, -672(%rbp)
100005636: e9 00 00 00 00              	jmp	0 <_main+0x5bb>
10000563b: 48 8b 85 60 fd ff ff        	movq	-672(%rbp), %rax
100005642: 48 89 85 08 fe ff ff        	movq	%rax, -504(%rbp)
100005649: 48 8b 8d 68 fd ff ff        	movq	-664(%rbp), %rcx
100005650: 48 89 8d 10 fe ff ff        	movq	%rcx, -496(%rbp)
100005657: c7 45 8c 00 00 00 00        	movl	$0, -116(%rbp)
10000565e: 48 8d bd f8 fe ff ff        	leaq	-264(%rbp), %rdi
100005665: e8 a6 03 00 00              	callq	934 <__ZNSt3__16vectorIiNS_9allocatorIiEEED1Ev>
10000566a: e9 00 00 00 00              	jmp	0 <_main+0x5ef>
10000566f: 48 8d bd 38 ff ff ff        	leaq	-200(%rbp), %rdi
100005676: e8 95 03 00 00              	callq	917 <__ZNSt3__16vectorIiNS_9allocatorIiEEED1Ev>
10000567b: e9 05 00 00 00              	jmp	5 <_main+0x605>
100005680: e9 3b 00 00 00              	jmp	59 <_main+0x640>
100005685: 48 8d bd 68 ff ff ff        	leaq	-152(%rbp), %rdi
10000568c: e8 9f 03 00 00              	callq	927 <__ZNSt3__16vectorI7AccountNS_9allocatorIS1_EEED1Ev>
100005691: 8b 45 8c                    	movl	-116(%rbp), %eax
100005694: 48 8b 0d 95 29 00 00        	movq	10645(%rip), %rcx
10000569b: 48 8b 09                    	movq	(%rcx), %rcx
10000569e: 48 8b 55 f8                 	movq	-8(%rbp), %rdx
1000056a2: 48 39 d1                    	cmpq	%rdx, %rcx
1000056a5: 89 85 5c fd ff ff           	movl	%eax, -676(%rbp)
1000056ab: 0f 85 58 00 00 00           	jne	88 <_main+0x689>
1000056b1: 8b 85 5c fd ff ff           	movl	-676(%rbp), %eax
1000056b7: 48 81 c4 b0 02 00 00        	addq	$688, %rsp
1000056be: 5d                          	popq	%rbp
1000056bf: c3                          	retq
1000056c0: 48 8d bd 38 ff ff ff        	leaq	-200(%rbp), %rdi
1000056c7: e8 44 03 00 00              	callq	836 <__ZNSt3__16vectorIiNS_9allocatorIiEEED1Ev>
1000056cc: e9 00 00 00 00              	jmp	0 <_main+0x651>
1000056d1: e9 00 00 00 00              	jmp	0 <_main+0x656>
1000056d6: 48 8d bd 68 ff ff ff        	leaq	-152(%rbp), %rdi
1000056dd: e8 4e 03 00 00              	callq	846 <__ZNSt3__16vectorI7AccountNS_9allocatorIS1_EEED1Ev>
1000056e2: e9 00 00 00 00              	jmp	0 <_main+0x667>
1000056e7: e9 00 00 00 00              	jmp	0 <_main+0x66c>
1000056ec: 48 8b bd 30 ff ff ff        	movq	-208(%rbp), %rdi
1000056f3: e8 4a 22 00 00              	callq	8778 <dyld_stub_binder+0x100007942>
1000056f8: 0f 0b                       	ud2
1000056fa: 48 89 c7                    	movq	%rax, %rdi
1000056fd: 48 89 95 50 fd ff ff        	movq	%rdx, -688(%rbp)
100005704: e8 67 f3 ff ff              	callq	-3225 <___clang_call_terminate>
100005709: e8 18 23 00 00              	callq	8984 <dyld_stub_binder+0x100007a26>
10000570e: 0f 0b                       	ud2

0000000100005710 __ZNSt3__16vectorI7AccountNS_9allocatorIS1_EEEC1IPKiEET_NS_9enable_ifIXaasr27__is_cpp17_forward_iteratorIS8_EE5valuesr16is_constructibleIS1_NS_15iterator_traitsIS8_E9referenceEEE5valueES8_E4typeE:
100005710: 55                          	pushq	%rbp
100005711: 48 89 e5                    	movq	%rsp, %rbp
100005714: 48 83 ec 20                 	subq	$32, %rsp
100005718: 48 89 7d f8                 	movq	%rdi, -8(%rbp)
10000571c: 48 89 75 f0                 	movq	%rsi, -16(%rbp)
100005720: 48 89 55 e8                 	movq	%rdx, -24(%rbp)
100005724: 48 8b 7d f8                 	movq	-8(%rbp), %rdi
100005728: 48 8b 75 f0                 	movq	-16(%rbp), %rsi
10000572c: 48 8b 55 e8                 	movq	-24(%rbp), %rdx
100005730: e8 1b 03 00 00              	callq	795 <__ZNSt3__16vectorI7AccountNS_9allocatorIS1_EEEC2IPKiEET_NS_9enable_ifIXaasr27__is_cpp17_forward_iteratorIS8_EE5valuesr16is_constructibleIS1_NS_15iterator_traitsIS8_E9referenceEEE5valueES8_E4typeE>
100005735: 48 83 c4 20                 	addq	$32, %rsp
100005739: 5d                          	popq	%rbp
10000573a: c3                          	retq
10000573b: 0f 1f 44 00 00              	nopl	(%rax,%rax)

0000000100005740 __ZNSt3__16vectorI7AccountNS_9allocatorIS1_EEE5beginEv:
100005740: 55                          	pushq	%rbp
100005741: 48 89 e5                    	movq	%rsp, %rbp
100005744: 48 83 ec 10                 	subq	$16, %rsp
100005748: 48 89 7d f0                 	movq	%rdi, -16(%rbp)
10000574c: 48 8b 45 f0                 	movq	-16(%rbp), %rax
100005750: 48 8b 30                    	movq	(%rax), %rsi
100005753: 48 89 c7                    	movq	%rax, %rdi
100005756: e8 25 13 00 00              	callq	4901 <__ZNSt3__16vectorI7AccountNS_9allocatorIS1_EEE11__make_iterEPS1_>
10000575b: 48 89 45 f8                 	movq	%rax, -8(%rbp)
10000575f: 48 8b 45 f8                 	movq	-8(%rbp), %rax
100005763: 48 83 c4 10                 	addq	$16, %rsp
100005767: 5d                          	popq	%rbp
100005768: c3                          	retq
100005769: 0f 1f 80 00 00 00 00        	nopl	(%rax)

0000000100005770 __ZNSt3__16vectorI7AccountNS_9allocatorIS1_EEE3endEv:
100005770: 55                          	pushq	%rbp
100005771: 48 89 e5                    	movq	%rsp, %rbp
100005774: 48 83 ec 10                 	subq	$16, %rsp
100005778: 48 89 7d f0                 	movq	%rdi, -16(%rbp)
10000577c: 48 8b 45 f0                 	movq	-16(%rbp), %rax
100005780: 48 8b 70 08                 	movq	8(%rax), %rsi
100005784: 48 89 c7                    	movq	%rax, %rdi
100005787: e8 f4 12 00 00              	callq	4852 <__ZNSt3__16vectorI7AccountNS_9allocatorIS1_EEE11__make_iterEPS1_>
10000578c: 48 89 45 f8                 	movq	%rax, -8(%rbp)
100005790: 48 8b 45 f8                 	movq	-8(%rbp), %rax
100005794: 48 83 c4 10                 	addq	$16, %rsp
100005798: 5d                          	popq	%rbp
100005799: c3                          	retq
10000579a: 66 0f 1f 44 00 00           	nopw	(%rax,%rax)

00000001000057a0 __ZNSt3__16vectorIiNS_9allocatorIiEEEC1IPKiEET_NS_9enable_ifIXaasr27__is_cpp17_forward_iteratorIS7_EE5valuesr16is_constructibleIiNS_15iterator_traitsIS7_E9referenceEEE5valueES7_E4typeE:
1000057a0: 55                          	pushq	%rbp
1000057a1: 48 89 e5                    	movq	%rsp, %rbp
1000057a4: 48 83 ec 20                 	subq	$32, %rsp
1000057a8: 48 89 7d f8                 	movq	%rdi, -8(%rbp)
1000057ac: 48 89 75 f0                 	movq	%rsi, -16(%rbp)
1000057b0: 48 89 55 e8                 	movq	%rdx, -24(%rbp)
1000057b4: 48 8b 7d f8                 	movq	-8(%rbp), %rdi
1000057b8: 48 8b 75 f0                 	movq	-16(%rbp), %rsi
1000057bc: 48 8b 55 e8                 	movq	-24(%rbp), %rdx
1000057c0: e8 3b 13 00 00              	callq	4923 <__ZNSt3__16vectorIiNS_9allocatorIiEEEC2IPKiEET_NS_9enable_ifIXaasr27__is_cpp17_forward_iteratorIS7_EE5valuesr16is_constructibleIiNS_15iterator_traitsIS7_E9referenceEEE5valueES7_E4typeE>
1000057c5: 48 83 c4 20                 	addq	$32, %rsp
1000057c9: 5d                          	popq	%rbp
1000057ca: c3                          	retq
1000057cb: 0f 1f 44 00 00              	nopl	(%rax,%rax)

00000001000057d0 __ZNSt3__16vectorIiNS_9allocatorIiEEE5beginEv:
1000057d0: 55                          	pushq	%rbp
1000057d1: 48 89 e5                    	movq	%rsp, %rbp
1000057d4: 48 83 ec 10                 	subq	$16, %rsp
1000057d8: 48 89 7d f0                 	movq	%rdi, -16(%rbp)
1000057dc: 48 8b 45 f0                 	movq	-16(%rbp), %rax
1000057e0: 48 8b 30                    	movq	(%rax), %rsi
1000057e3: 48 89 c7                    	movq	%rax, %rdi
1000057e6: e8 e5 1e 00 00              	callq	7909 <__ZNSt3__16vectorIiNS_9allocatorIiEEE11__make_iterEPi>
1000057eb: 48 89 45 f8                 	movq	%rax, -8(%rbp)
1000057ef: 48 8b 45 f8                 	movq	-8(%rbp), %rax
1000057f3: 48 83 c4 10                 	addq	$16, %rsp
1000057f7: 5d                          	popq	%rbp
1000057f8: c3                          	retq
1000057f9: 0f 1f 80 00 00 00 00        	nopl	(%rax)

0000000100005800 __ZNSt3__16vectorIiNS_9allocatorIiEEE3endEv:
100005800: 55                          	pushq	%rbp
100005801: 48 89 e5                    	movq	%rsp, %rbp
100005804: 48 83 ec 10                 	subq	$16, %rsp
100005808: 48 89 7d f0                 	movq	%rdi, -16(%rbp)
10000580c: 48 8b 45 f0                 	movq	-16(%rbp), %rax
100005810: 48 8b 70 08                 	movq	8(%rax), %rsi
100005814: 48 89 c7                    	movq	%rax, %rdi
100005817: e8 b4 1e 00 00              	callq	7860 <__ZNSt3__16vectorIiNS_9allocatorIiEEE11__make_iterEPi>
10000581c: 48 89 45 f8                 	movq	%rax, -8(%rbp)
100005820: 48 8b 45 f8                 	movq	-8(%rbp), %rax
100005824: 48 83 c4 10                 	addq	$16, %rsp
100005828: 5d                          	popq	%rbp
100005829: c3                          	retq
10000582a: 66 0f 1f 44 00 00           	nopw	(%rax,%rax)

0000000100005830 __ZNSt3__1L8for_eachINS_11__wrap_iterIP7AccountEENS_19const_mem_fun_ref_tIvS2_EEEET0_T_S8_S7_:
100005830: 55                          	pushq	%rbp
100005831: 48 89 e5                    	movq	%rsp, %rbp
100005834: 48 83 ec 30                 	subq	$48, %rsp
100005838: 48 89 7d e8                 	movq	%rdi, -24(%rbp)
10000583c: 48 89 75 e0                 	movq	%rsi, -32(%rbp)
100005840: 48 89 55 d0                 	movq	%rdx, -48(%rbp)
100005844: 48 89 4d d8                 	movq	%rcx, -40(%rbp)
100005848: 48 8d 7d e8                 	leaq	-24(%rbp), %rdi
10000584c: 48 8d 75 e0                 	leaq	-32(%rbp), %rsi
100005850: e8 db 00 00 00              	callq	219 <__ZNSt3__1neIP7AccountEEbRKNS_11__wrap_iterIT_EES7_>
100005855: a8 01                       	testb	$1, %al
100005857: 0f 85 05 00 00 00           	jne	5 <__ZNSt3__1L8for_eachINS_11__wrap_iterIP7AccountEENS_19const_mem_fun_ref_tIvS2_EEEET0_T_S8_S7_+0x32>
10000585d: e9 23 00 00 00              	jmp	35 <__ZNSt3__1L8for_eachINS_11__wrap_iterIP7AccountEENS_19const_mem_fun_ref_tIvS2_EEEET0_T_S8_S7_+0x55>
100005862: 48 8d 7d e8                 	leaq	-24(%rbp), %rdi
100005866: e8 25 01 00 00              	callq	293 <__ZNKSt3__111__wrap_iterIP7AccountEdeEv>
10000586b: 48 8d 7d d0                 	leaq	-48(%rbp), %rdi
10000586f: 48 89 c6                    	movq	%rax, %rsi
100005872: e8 69 1f 00 00              	callq	8041 <__ZNKSt3__119const_mem_fun_ref_tIv7AccountEclERKS1_>
100005877: 48 8d 7d e8                 	leaq	-24(%rbp), %rdi
10000587b: e8 50 01 00 00              	callq	336 <__ZNSt3__111__wrap_iterIP7AccountEppEv>
100005880: e9 c3 ff ff ff              	jmp	-61 <__ZNSt3__1L8for_eachINS_11__wrap_iterIP7AccountEENS_19const_mem_fun_ref_tIvS2_EEEET0_T_S8_S7_+0x18>
100005885: 48 8b 45 d0                 	movq	-48(%rbp), %rax
100005889: 48 8b 4d d8                 	movq	-40(%rbp), %rcx
10000588d: 48 89 4d f8                 	movq	%rcx, -8(%rbp)
100005891: 48 89 45 f0                 	movq	%rax, -16(%rbp)
100005895: 48 8b 45 f0                 	movq	-16(%rbp), %rax
100005899: 48 8b 55 f8                 	movq	-8(%rbp), %rdx
10000589d: 48 83 c4 30                 	addq	$48, %rsp
1000058a1: 5d                          	popq	%rbp
1000058a2: c3                          	retq
1000058a3: 66 2e 0f 1f 84 00 00 00 00 00       	nopw	%cs:(%rax,%rax)
1000058ad: 0f 1f 00                    	nopl	(%rax)

00000001000058b0 __ZNSt3__1L11mem_fun_refIv7AccountEENS_19const_mem_fun_ref_tIT_T0_EEMS4_KFS3_vE:
1000058b0: 55                          	pushq	%rbp
1000058b1: 48 89 e5                    	movq	%rsp, %rbp
1000058b4: 48 83 ec 40                 	subq	$64, %rsp
1000058b8: 48 89 7d e0                 	movq	%rdi, -32(%rbp)
1000058bc: 48 89 75 e8                 	movq	%rsi, -24(%rbp)
1000058c0: 48 8b 45 e0                 	movq	-32(%rbp), %rax
1000058c4: 48 8b 4d e8                 	movq	-24(%rbp), %rcx
1000058c8: 48 89 4d d8                 	movq	%rcx, -40(%rbp)
1000058cc: 48 89 45 d0                 	movq	%rax, -48(%rbp)
1000058d0: 48 8b 45 d0                 	movq	-48(%rbp), %rax
1000058d4: 48 8b 4d d8                 	movq	-40(%rbp), %rcx
1000058d8: 48 89 4d c8                 	movq	%rcx, -56(%rbp)
1000058dc: 48 89 45 c0                 	movq	%rax, -64(%rbp)
1000058e0: 48 8b 75 c0                 	movq	-64(%rbp), %rsi
1000058e4: 48 8b 55 c8                 	movq	-56(%rbp), %rdx
1000058e8: 48 8d 7d f0                 	leaq	-16(%rbp), %rdi
1000058ec: e8 5f 1e 00 00              	callq	7775 <__ZNSt3__119const_mem_fun_ref_tIv7AccountEC1EMS1_KFvvE>
1000058f1: 48 8b 45 f0                 	movq	-16(%rbp), %rax
1000058f5: 48 8b 55 f8                 	movq	-8(%rbp), %rdx
1000058f9: 48 83 c4 40                 	addq	$64, %rsp
1000058fd: 5d                          	popq	%rbp
1000058fe: c3                          	retq
1000058ff: 90                          	nop

0000000100005900 __ZNSt3__14pairINS_11__wrap_iterIP7AccountEENS1_IPiEEEC1ERKS4_RKS6_:
100005900: 55                          	pushq	%rbp
100005901: 48 89 e5                    	movq	%rsp, %rbp
100005904: 48 83 ec 20                 	subq	$32, %rsp
100005908: 48 89 7d f8                 	movq	%rdi, -8(%rbp)
10000590c: 48 89 75 f0                 	movq	%rsi, -16(%rbp)
100005910: 48 89 55 e8                 	movq	%rdx, -24(%rbp)
100005914: 48 8b 7d f8                 	movq	-8(%rbp), %rdi
100005918: 48 8b 75 f0                 	movq	-16(%rbp), %rsi
10000591c: 48 8b 55 e8                 	movq	-24(%rbp), %rdx
100005920: e8 3b 1f 00 00              	callq	7995 <__ZNSt3__14pairINS_11__wrap_iterIP7AccountEENS1_IPiEEEC2ERKS4_RKS6_>
100005925: 48 83 c4 20                 	addq	$32, %rsp
100005929: 5d                          	popq	%rbp
10000592a: c3                          	retq
10000592b: 0f 1f 44 00 00              	nopl	(%rax,%rax)

0000000100005930 __ZNSt3__1neIP7AccountEEbRKNS_11__wrap_iterIT_EES7_:
100005930: 55                          	pushq	%rbp
100005931: 48 89 e5                    	movq	%rsp, %rbp
100005934: 48 83 ec 10                 	subq	$16, %rsp
100005938: 48 89 7d f8                 	movq	%rdi, -8(%rbp)
10000593c: 48 89 75 f0                 	movq	%rsi, -16(%rbp)
100005940: 48 8b 7d f8                 	movq	-8(%rbp), %rdi
100005944: 48 8b 75 f0                 	movq	-16(%rbp), %rsi
100005948: e8 43 1f 00 00              	callq	8003 <__ZNSt3__1eqIP7AccountS2_EEbRKNS_11__wrap_iterIT_EERKNS3_IT0_EE>
10000594d: 34 ff                       	xorb	$-1, %al
10000594f: 24 01                       	andb	$1, %al
100005951: 0f b6 c0                    	movzbl	%al, %eax
100005954: 48 83 c4 10                 	addq	$16, %rsp
100005958: 5d                          	popq	%rbp
100005959: c3                          	retq
10000595a: 66 0f 1f 44 00 00           	nopw	(%rax,%rax)

0000000100005960 __ZNSt3__1neIPiEEbRKNS_11__wrap_iterIT_EES6_:
100005960: 55                          	pushq	%rbp
100005961: 48 89 e5                    	movq	%rsp, %rbp
100005964: 48 83 ec 10                 	subq	$16, %rsp
100005968: 48 89 7d f8                 	movq	%rdi, -8(%rbp)
10000596c: 48 89 75 f0                 	movq	%rsi, -16(%rbp)
100005970: 48 8b 7d f8                 	movq	-8(%rbp), %rdi
100005974: 48 8b 75 f0                 	movq	-16(%rbp), %rsi
100005978: e8 73 1f 00 00              	callq	8051 <__ZNSt3__1eqIPiS1_EEbRKNS_11__wrap_iterIT_EERKNS2_IT0_EE>
10000597d: 34 ff                       	xorb	$-1, %al
10000597f: 24 01                       	andb	$1, %al
100005981: 0f b6 c0                    	movzbl	%al, %eax
100005984: 48 83 c4 10                 	addq	$16, %rsp
100005988: 5d                          	popq	%rbp
100005989: c3                          	retq
10000598a: 66 0f 1f 44 00 00           	nopw	(%rax,%rax)

0000000100005990 __ZNKSt3__111__wrap_iterIP7AccountEdeEv:
100005990: 55                          	pushq	%rbp
100005991: 48 89 e5                    	movq	%rsp, %rbp
100005994: 48 89 7d f8                 	movq	%rdi, -8(%rbp)
100005998: 48 8b 45 f8                 	movq	-8(%rbp), %rax
10000599c: 48 8b 00                    	movq	(%rax), %rax
10000599f: 5d                          	popq	%rbp
1000059a0: c3                          	retq
1000059a1: 66 2e 0f 1f 84 00 00 00 00 00       	nopw	%cs:(%rax,%rax)
1000059ab: 0f 1f 44 00 00              	nopl	(%rax,%rax)

00000001000059b0 __ZNKSt3__111__wrap_iterIPiEdeEv:
1000059b0: 55                          	pushq	%rbp
1000059b1: 48 89 e5                    	movq	%rsp, %rbp
1000059b4: 48 89 7d f8                 	movq	%rdi, -8(%rbp)
1000059b8: 48 8b 45 f8                 	movq	-8(%rbp), %rax
1000059bc: 48 8b 00                    	movq	(%rax), %rax
1000059bf: 5d                          	popq	%rbp
1000059c0: c3                          	retq
1000059c1: 66 2e 0f 1f 84 00 00 00 00 00       	nopw	%cs:(%rax,%rax)
1000059cb: 0f 1f 44 00 00              	nopl	(%rax,%rax)

00000001000059d0 __ZNSt3__111__wrap_iterIP7AccountEppEv:
1000059d0: 55                          	pushq	%rbp
1000059d1: 48 89 e5                    	movq	%rsp, %rbp
1000059d4: 48 89 7d f8                 	movq	%rdi, -8(%rbp)
1000059d8: 48 8b 45 f8                 	movq	-8(%rbp), %rax
1000059dc: 48 8b 08                    	movq	(%rax), %rcx
1000059df: 48 81 c1 10 00 00 00        	addq	$16, %rcx
1000059e6: 48 89 08                    	movq	%rcx, (%rax)
1000059e9: 5d                          	popq	%rbp
1000059ea: c3                          	retq
1000059eb: 0f 1f 44 00 00              	nopl	(%rax,%rax)

00000001000059f0 __ZNSt3__111__wrap_iterIPiEppEv:
1000059f0: 55                          	pushq	%rbp
1000059f1: 48 89 e5                    	movq	%rsp, %rbp
1000059f4: 48 89 7d f8                 	movq	%rdi, -8(%rbp)
1000059f8: 48 8b 45 f8                 	movq	-8(%rbp), %rax
1000059fc: 48 8b 08                    	movq	(%rax), %rcx
1000059ff: 48 81 c1 04 00 00 00        	addq	$4, %rcx
100005a06: 48 89 08                    	movq	%rcx, (%rax)
100005a09: 5d                          	popq	%rbp
100005a0a: c3                          	retq
100005a0b: 0f 1f 44 00 00              	nopl	(%rax,%rax)

0000000100005a10 __ZNSt3__16vectorIiNS_9allocatorIiEEED1Ev:
100005a10: 55                          	pushq	%rbp
100005a11: 48 89 e5                    	movq	%rsp, %rbp
100005a14: 48 83 ec 10                 	subq	$16, %rsp
100005a18: 48 89 7d f8                 	movq	%rdi, -8(%rbp)
100005a1c: 48 8b 7d f8                 	movq	-8(%rbp), %rdi
100005a20: e8 9b 1b 00 00              	callq	7067 <__ZNSt3__16vectorIiNS_9allocatorIiEEED2Ev>
100005a25: 48 83 c4 10                 	addq	$16, %rsp
100005a29: 5d                          	popq	%rbp
100005a2a: c3                          	retq
100005a2b: 0f 1f 44 00 00              	nopl	(%rax,%rax)

0000000100005a30 __ZNSt3__16vectorI7AccountNS_9allocatorIS1_EEED1Ev:
100005a30: 55                          	pushq	%rbp
100005a31: 48 89 e5                    	movq	%rsp, %rbp
100005a34: 48 83 ec 10                 	subq	$16, %rsp
100005a38: 48 89 7d f8                 	movq	%rdi, -8(%rbp)
100005a3c: 48 8b 7d f8                 	movq	-8(%rbp), %rdi
100005a40: e8 2b 0f 00 00              	callq	3883 <__ZNSt3__16vectorI7AccountNS_9allocatorIS1_EEED2Ev>
100005a45: 48 83 c4 10                 	addq	$16, %rsp
100005a49: 5d                          	popq	%rbp
100005a4a: c3                          	retq
100005a4b: 0f 1f 44 00 00              	nopl	(%rax,%rax)

0000000100005a50 __ZNSt3__16vectorI7AccountNS_9allocatorIS1_EEEC2IPKiEET_NS_9enable_ifIXaasr27__is_cpp17_forward_iteratorIS8_EE5valuesr16is_constructibleIS1_NS_15iterator_traitsIS8_E9referenceEEE5valueES8_E4typeE:
100005a50: 55                          	pushq	%rbp
100005a51: 48 89 e5                    	movq	%rsp, %rbp
100005a54: 48 83 ec 50                 	subq	$80, %rsp
100005a58: 48 89 7d f8                 	movq	%rdi, -8(%rbp)
100005a5c: 48 89 75 f0                 	movq	%rsi, -16(%rbp)
100005a60: 48 89 55 e8                 	movq	%rdx, -24(%rbp)
100005a64: 48 8b 45 f8                 	movq	-8(%rbp), %rax
100005a68: 48 89 c7                    	movq	%rax, %rdi
100005a6b: 48 89 45 c8                 	movq	%rax, -56(%rbp)
100005a6f: e8 9c 00 00 00              	callq	156 <__ZNSt3__113__vector_baseI7AccountNS_9allocatorIS1_EEEC2Ev>
100005a74: 48 8b 7d f0                 	movq	-16(%rbp), %rdi
100005a78: 48 8b 75 e8                 	movq	-24(%rbp), %rsi
100005a7c: e8 0f 01 00 00              	callq	271 <__ZNSt3__1L8distanceIPKiEENS_15iterator_traitsIT_E15difference_typeES4_S4_>
100005a81: 48 89 45 c0                 	movq	%rax, -64(%rbp)
100005a85: e9 00 00 00 00              	jmp	0 <__ZNSt3__16vectorI7AccountNS_9allocatorIS1_EEEC2IPKiEET_NS_9enable_ifIXaasr27__is_cpp17_forward_iteratorIS8_EE5valuesr16is_constructibleIS1_NS_15iterator_traitsIS8_E9referenceEEE5valueES8_E4typeE+0x3a>
100005a8a: 48 8b 45 c0                 	movq	-64(%rbp), %rax
100005a8e: 48 89 45 e0                 	movq	%rax, -32(%rbp)
100005a92: 48 83 7d e0 00              	cmpq	$0, -32(%rbp)
100005a97: 0f 86 46 00 00 00           	jbe	70 <__ZNSt3__16vectorI7AccountNS_9allocatorIS1_EEEC2IPKiEET_NS_9enable_ifIXaasr27__is_cpp17_forward_iteratorIS8_EE5valuesr16is_constructibleIS1_NS_15iterator_traitsIS8_E9referenceEEE5valueES8_E4typeE+0x93>
100005a9d: 48 8b 75 e0                 	movq	-32(%rbp), %rsi
100005aa1: 48 8b 7d c8                 	movq	-56(%rbp), %rdi
100005aa5: e8 16 1f 00 00              	callq	7958 <dyld_stub_binder+0x1000079c0>
100005aaa: e9 00 00 00 00              	jmp	0 <__ZNSt3__16vectorI7AccountNS_9allocatorIS1_EEEC2IPKiEET_NS_9enable_ifIXaasr27__is_cpp17_forward_iteratorIS8_EE5valuesr16is_constructibleIS1_NS_15iterator_traitsIS8_E9referenceEEE5valueES8_E4typeE+0x5f>
100005aaf: 48 8b 75 f0                 	movq	-16(%rbp), %rsi
100005ab3: 48 8b 55 e8                 	movq	-24(%rbp), %rdx
100005ab7: 48 8b 4d e0                 	movq	-32(%rbp), %rcx
100005abb: 48 8b 7d c8                 	movq	-56(%rbp), %rdi
100005abf: e8 02 1f 00 00              	callq	7938 <dyld_stub_binder+0x1000079c6>
100005ac4: e9 00 00 00 00              	jmp	0 <__ZNSt3__16vectorI7AccountNS_9allocatorIS1_EEEC2IPKiEET_NS_9enable_ifIXaasr27__is_cpp17_forward_iteratorIS8_EE5valuesr16is_constructibleIS1_NS_15iterator_traitsIS8_E9referenceEEE5valueES8_E4typeE+0x79>
100005ac9: e9 15 00 00 00              	jmp	21 <__ZNSt3__16vectorI7AccountNS_9allocatorIS1_EEEC2IPKiEET_NS_9enable_ifIXaasr27__is_cpp17_forward_iteratorIS8_EE5valuesr16is_constructibleIS1_NS_15iterator_traitsIS8_E9referenceEEE5valueES8_E4typeE+0x93>
100005ace: 48 89 45 d8                 	movq	%rax, -40(%rbp)
100005ad2: 89 55 d4                    	movl	%edx, -44(%rbp)
100005ad5: 48 8b 7d c8                 	movq	-56(%rbp), %rdi
100005ad9: e8 22 02 00 00              	callq	546 <__ZNSt3__113__vector_baseI7AccountNS_9allocatorIS1_EEED2Ev>
100005ade: e9 06 00 00 00              	jmp	6 <__ZNSt3__16vectorI7AccountNS_9allocatorIS1_EEEC2IPKiEET_NS_9enable_ifIXaasr27__is_cpp17_forward_iteratorIS8_EE5valuesr16is_constructibleIS1_NS_15iterator_traitsIS8_E9referenceEEE5valueES8_E4typeE+0x99>
100005ae3: 48 83 c4 50                 	addq	$80, %rsp
100005ae7: 5d                          	popq	%rbp
100005ae8: c3                          	retq
100005ae9: e9 00 00 00 00              	jmp	0 <__ZNSt3__16vectorI7AccountNS_9allocatorIS1_EEEC2IPKiEET_NS_9enable_ifIXaasr27__is_cpp17_forward_iteratorIS8_EE5valuesr16is_constructibleIS1_NS_15iterator_traitsIS8_E9referenceEEE5valueES8_E4typeE+0x9e>
100005aee: 48 8b 7d d8                 	movq	-40(%rbp), %rdi
100005af2: e8 4b 1e 00 00              	callq	7755 <dyld_stub_binder+0x100007942>
100005af7: 0f 0b                       	ud2
100005af9: 48 89 c7                    	movq	%rax, %rdi
100005afc: 48 89 55 b8                 	movq	%rdx, -72(%rbp)
100005b00: e8 6b ef ff ff              	callq	-4245 <___clang_call_terminate>
100005b05: 66 2e 0f 1f 84 00 00 00 00 00       	nopw	%cs:(%rax,%rax)
100005b0f: 90                          	nop

0000000100005b10 __ZNSt3__113__vector_baseI7AccountNS_9allocatorIS1_EEEC2Ev:
100005b10: 55                          	pushq	%rbp
100005b11: 48 89 e5                    	movq	%rsp, %rbp
100005b14: 48 83 ec 40                 	subq	$64, %rsp
100005b18: 48 89 7d f8                 	movq	%rdi, -8(%rbp)
100005b1c: 48 8b 45 f8                 	movq	-8(%rbp), %rax
100005b20: 48 89 c1                    	movq	%rax, %rcx
100005b23: 48 89 cf                    	movq	%rcx, %rdi
100005b26: 48 89 45 d0                 	movq	%rax, -48(%rbp)
100005b2a: e8 51 02 00 00              	callq	593 <__ZNSt3__120__vector_base_commonILb1EEC2Ev>
100005b2f: e8 5c 02 00 00              	callq	604 <__ZNSt3__1L15__get_nullptr_tEv>
100005b34: 48 89 45 f0                 	movq	%rax, -16(%rbp)
100005b38: 48 8d 7d f0                 	leaq	-16(%rbp), %rdi
100005b3c: e8 7f 02 00 00              	callq	639 <__ZNKSt3__19nullptr_tcvPT_I7AccountEEv>
100005b41: 48 8b 4d d0                 	movq	-48(%rbp), %rcx
100005b45: 48 89 01                    	movq	%rax, (%rcx)
100005b48: e8 43 02 00 00              	callq	579 <__ZNSt3__1L15__get_nullptr_tEv>
100005b4d: 48 89 45 e8                 	movq	%rax, -24(%rbp)
100005b51: 48 8d 7d e8                 	leaq	-24(%rbp), %rdi
100005b55: e8 66 02 00 00              	callq	614 <__ZNKSt3__19nullptr_tcvPT_I7AccountEEv>
100005b5a: 48 8b 4d d0                 	movq	-48(%rbp), %rcx
100005b5e: 48 89 41 08                 	movq	%rax, 8(%rcx)
100005b62: 48 81 c1 10 00 00 00        	addq	$16, %rcx
100005b69: 48 89 4d c8                 	movq	%rcx, -56(%rbp)
100005b6d: e8 1e 02 00 00              	callq	542 <__ZNSt3__1L15__get_nullptr_tEv>
100005b72: 48 89 45 e0                 	movq	%rax, -32(%rbp)
100005b76: 48 8b 7d c8                 	movq	-56(%rbp), %rdi
100005b7a: 48 8d 75 e0                 	leaq	-32(%rbp), %rsi
100005b7e: 48 8d 55 d8                 	leaq	-40(%rbp), %rdx
100005b82: e8 49 02 00 00              	callq	585 <__ZNSt3__117__compressed_pairIP7AccountNS_9allocatorIS1_EEEC1INS_9nullptr_tENS_18__default_init_tagEEEOT_OT0_>
100005b87: 48 83 c4 40                 	addq	$64, %rsp
100005b8b: 5d                          	popq	%rbp
100005b8c: c3                          	retq
100005b8d: 0f 1f 00                    	nopl	(%rax)

0000000100005b90 __ZNSt3__1L8distanceIPKiEENS_15iterator_traitsIT_E15difference_typeES4_S4_:
100005b90: 55                          	pushq	%rbp
100005b91: 48 89 e5                    	movq	%rsp, %rbp
100005b94: 48 83 ec 20                 	subq	$32, %rsp
100005b98: 48 89 7d f8                 	movq	%rdi, -8(%rbp)
100005b9c: 48 89 75 f0                 	movq	%rsi, -16(%rbp)
100005ba0: 48 8b 7d f8                 	movq	-8(%rbp), %rdi
100005ba4: 48 8b 75 f0                 	movq	-16(%rbp), %rsi
100005ba8: e8 93 03 00 00              	callq	915 <__ZNSt3__1L10__distanceIPKiEENS_15iterator_traitsIT_E15difference_typeES4_S4_NS_26random_access_iterator_tagE>
100005bad: 48 83 c4 20                 	addq	$32, %rsp
100005bb1: 5d                          	popq	%rbp
100005bb2: c3                          	retq
100005bb3: 66 2e 0f 1f 84 00 00 00 00 00       	nopw	%cs:(%rax,%rax)
100005bbd: 0f 1f 00                    	nopl	(%rax)

0000000100005bc0 __ZNSt3__16vectorI7AccountNS_9allocatorIS1_EEE11__vallocateEm:
100005bc0: 55                          	pushq	%rbp
100005bc1: 48 89 e5                    	movq	%rsp, %rbp
100005bc4: 48 83 ec 30                 	subq	$48, %rsp
100005bc8: 48 89 7d f8                 	movq	%rdi, -8(%rbp)
100005bcc: 48 89 75 f0                 	movq	%rsi, -16(%rbp)
100005bd0: 48 8b 45 f8                 	movq	-8(%rbp), %rax
100005bd4: 48 8b 4d f0                 	movq	-16(%rbp), %rcx
100005bd8: 48 89 c7                    	movq	%rax, %rdi
100005bdb: 48 89 45 e8                 	movq	%rax, -24(%rbp)
100005bdf: 48 89 4d e0                 	movq	%rcx, -32(%rbp)
100005be3: e8 6c 1d 00 00              	callq	7532 <dyld_stub_binder+0x100007954>
100005be8: 48 8b 4d e0                 	movq	-32(%rbp), %rcx
100005bec: 48 39 c1                    	cmpq	%rax, %rcx
100005bef: 0f 86 09 00 00 00           	jbe	9 <__ZNSt3__16vectorI7AccountNS_9allocatorIS1_EEE11__vallocateEm+0x3e>
100005bf5: 48 8b 7d e8                 	movq	-24(%rbp), %rdi
100005bf9: e8 4a 1d 00 00              	callq	7498 <dyld_stub_binder+0x100007948>
100005bfe: 48 8b 45 e8                 	movq	-24(%rbp), %rax
100005c02: 48 89 c7                    	movq	%rax, %rdi
100005c05: e8 e6 03 00 00              	callq	998 <__ZNSt3__113__vector_baseI7AccountNS_9allocatorIS1_EEE7__allocEv>
100005c0a: 48 8b 75 f0                 	movq	-16(%rbp), %rsi
100005c0e: 48 89 c7                    	movq	%rax, %rdi
100005c11: e8 aa 03 00 00              	callq	938 <__ZNSt3__116allocator_traitsINS_9allocatorI7AccountEEE8allocateERS3_m>
100005c16: 48 8b 4d e8                 	movq	-24(%rbp), %rcx
100005c1a: 48 89 41 08                 	movq	%rax, 8(%rcx)
100005c1e: 48 89 01                    	movq	%rax, (%rcx)
100005c21: 48 8b 01                    	movq	(%rcx), %rax
100005c24: 48 8b 55 f0                 	movq	-16(%rbp), %rdx
100005c28: 48 c1 e2 04                 	shlq	$4, %rdx
100005c2c: 48 01 d0                    	addq	%rdx, %rax
100005c2f: 48 89 cf                    	movq	%rcx, %rdi
100005c32: 48 89 45 d8                 	movq	%rax, -40(%rbp)
100005c36: e8 e5 03 00 00              	callq	997 <__ZNSt3__113__vector_baseI7AccountNS_9allocatorIS1_EEE9__end_capEv>
100005c3b: 45 31 c0                    	xorl	%r8d, %r8d
100005c3e: 44 89 c6                    	movl	%r8d, %esi
100005c41: 48 8b 4d d8                 	movq	-40(%rbp), %rcx
100005c45: 48 89 08                    	movq	%rcx, (%rax)
100005c48: 48 8b 7d e8                 	movq	-24(%rbp), %rdi
100005c4c: e8 ff 03 00 00              	callq	1023 <__ZNKSt3__16vectorI7AccountNS_9allocatorIS1_EEE14__annotate_newEm>
100005c51: 48 83 c4 30                 	addq	$48, %rsp
100005c55: 5d                          	popq	%rbp
100005c56: c3                          	retq
100005c57: 66 0f 1f 84 00 00 00 00 00  	nopw	(%rax,%rax)

0000000100005c60 __ZNSt3__16vectorI7AccountNS_9allocatorIS1_EEE18__construct_at_endIPKiEENS_9enable_ifIXsr27__is_cpp17_forward_iteratorIT_EE5valueEvE4typeES9_S9_m:
100005c60: 55                          	pushq	%rbp
100005c61: 48 89 e5                    	movq	%rsp, %rbp
100005c64: 48 83 ec 60                 	subq	$96, %rsp
100005c68: 48 89 7d f8                 	movq	%rdi, -8(%rbp)
100005c6c: 48 89 75 f0                 	movq	%rsi, -16(%rbp)
100005c70: 48 89 55 e8                 	movq	%rdx, -24(%rbp)
100005c74: 48 89 4d e0                 	movq	%rcx, -32(%rbp)
100005c78: 48 8b 45 f8                 	movq	-8(%rbp), %rax
100005c7c: 48 8b 55 e0                 	movq	-32(%rbp), %rdx
100005c80: 48 8d 7d c8                 	leaq	-56(%rbp), %rdi
100005c84: 48 89 c6                    	movq	%rax, %rsi
100005c87: 48 89 45 b0                 	movq	%rax, -80(%rbp)
100005c8b: e8 c0 08 00 00              	callq	2240 <__ZNSt3__16vectorI7AccountNS_9allocatorIS1_EEE21_ConstructTransactionC1ERS4_m>
100005c90: 48 8b 7d b0                 	movq	-80(%rbp), %rdi
100005c94: e8 57 03 00 00              	callq	855 <__ZNSt3__113__vector_baseI7AccountNS_9allocatorIS1_EEE7__allocEv>
100005c99: 48 8b 75 f0                 	movq	-16(%rbp), %rsi
100005c9d: 48 8b 55 e8                 	movq	-24(%rbp), %rdx
100005ca1: 48 8d 4d d0                 	leaq	-48(%rbp), %rcx
100005ca5: 48 89 c7                    	movq	%rax, %rdi
100005ca8: e8 d3 08 00 00              	callq	2259 <__ZNSt3__116allocator_traitsINS_9allocatorI7AccountEEE25__construct_range_forwardIPKiPS2_EEvRS3_T_SA_RT0_>
100005cad: e9 00 00 00 00              	jmp	0 <__ZNSt3__16vectorI7AccountNS_9allocatorIS1_EEE18__construct_at_endIPKiEENS_9enable_ifIXsr27__is_cpp17_forward_iteratorIT_EE5valueEvE4typeES9_S9_m+0x52>
100005cb2: 48 8d 7d c8                 	leaq	-56(%rbp), %rdi
100005cb6: e8 45 09 00 00              	callq	2373 <__ZNSt3__16vectorIiNS_9allocatorIiEEE21_ConstructTransactionD1Ev>
100005cbb: 48 83 c4 60                 	addq	$96, %rsp
100005cbf: 5d                          	popq	%rbp
100005cc0: c3                          	retq
100005cc1: 48 89 45 c0                 	movq	%rax, -64(%rbp)
100005cc5: 89 55 bc                    	movl	%edx, -68(%rbp)
100005cc8: 48 8d 7d c8                 	leaq	-56(%rbp), %rdi
100005ccc: e8 2f 09 00 00              	callq	2351 <__ZNSt3__16vectorIiNS_9allocatorIiEEE21_ConstructTransactionD1Ev>
100005cd1: e9 00 00 00 00              	jmp	0 <__ZNSt3__16vectorI7AccountNS_9allocatorIS1_EEE18__construct_at_endIPKiEENS_9enable_ifIXsr27__is_cpp17_forward_iteratorIT_EE5valueEvE4typeES9_S9_m+0x76>
100005cd6: e9 00 00 00 00              	jmp	0 <__ZNSt3__16vectorI7AccountNS_9allocatorIS1_EEE18__construct_at_endIPKiEENS_9enable_ifIXsr27__is_cpp17_forward_iteratorIT_EE5valueEvE4typeES9_S9_m+0x7b>
100005cdb: 48 8b 7d c0                 	movq	-64(%rbp), %rdi
100005cdf: e8 5e 1c 00 00              	callq	7262 <dyld_stub_binder+0x100007942>
100005ce4: 0f 0b                       	ud2
100005ce6: 48 89 c7                    	movq	%rax, %rdi
100005ce9: 48 89 55 a8                 	movq	%rdx, -88(%rbp)
100005ced: e8 7e ed ff ff              	callq	-4738 <___clang_call_terminate>
100005cf2: 66 2e 0f 1f 84 00 00 00 00 00       	nopw	%cs:(%rax,%rax)
100005cfc: 0f 1f 40 00                 	nopl	(%rax)

0000000100005d00 __ZNSt3__113__vector_baseI7AccountNS_9allocatorIS1_EEED2Ev:
100005d00: 55                          	pushq	%rbp
100005d01: 48 89 e5                    	movq	%rsp, %rbp
100005d04: 48 83 ec 30                 	subq	$48, %rsp
100005d08: 48 89 7d f8                 	movq	%rdi, -8(%rbp)
100005d0c: 48 8b 45 f8                 	movq	-8(%rbp), %rax
100005d10: 48 8b 08                    	movq	(%rax), %rcx
100005d13: 48 89 45 e8                 	movq	%rax, -24(%rbp)
100005d17: 48 89 4d e0                 	movq	%rcx, -32(%rbp)
100005d1b: e8 70 00 00 00              	callq	112 <__ZNSt3__1L15__get_nullptr_tEv>
100005d20: 48 89 45 f0                 	movq	%rax, -16(%rbp)
100005d24: 48 8d 7d f0                 	leaq	-16(%rbp), %rdi
100005d28: e8 93 00 00 00              	callq	147 <__ZNKSt3__19nullptr_tcvPT_I7AccountEEv>
100005d2d: 48 8b 4d e0                 	movq	-32(%rbp), %rcx
100005d31: 48 39 c1                    	cmpq	%rax, %rcx
100005d34: 0f 84 39 00 00 00           	je	57 <__ZNSt3__113__vector_baseI7AccountNS_9allocatorIS1_EEED2Ev+0x73>
100005d3a: 48 8b 7d e8                 	movq	-24(%rbp), %rdi
100005d3e: e8 cd 09 00 00              	callq	2509 <__ZNSt3__113__vector_baseI7AccountNS_9allocatorIS1_EEE5clearEv>
100005d43: 48 8b 7d e8                 	movq	-24(%rbp), %rdi
100005d47: e8 a4 02 00 00              	callq	676 <__ZNSt3__113__vector_baseI7AccountNS_9allocatorIS1_EEE7__allocEv>
100005d4c: 48 8b 4d e8                 	movq	-24(%rbp), %rcx
100005d50: 48 8b 31                    	movq	(%rcx), %rsi
100005d53: 48 89 cf                    	movq	%rcx, %rdi
100005d56: 48 89 45 d8                 	movq	%rax, -40(%rbp)
100005d5a: 48 89 75 d0                 	movq	%rsi, -48(%rbp)
100005d5e: e8 4d 07 00 00              	callq	1869 <__ZNKSt3__113__vector_baseI7AccountNS_9allocatorIS1_EEE8capacityEv>
100005d63: 48 8b 7d d8                 	movq	-40(%rbp), %rdi
100005d67: 48 8b 75 d0                 	movq	-48(%rbp), %rsi
100005d6b: 48 89 c2                    	movq	%rax, %rdx
100005d6e: e8 cd 09 00 00              	callq	2509 <__ZNSt3__116allocator_traitsINS_9allocatorI7AccountEEE10deallocateERS3_PS2_m>
100005d73: 48 83 c4 30                 	addq	$48, %rsp
100005d77: 5d                          	popq	%rbp
100005d78: c3                          	retq
100005d79: 0f 1f 80 00 00 00 00        	nopl	(%rax)

0000000100005d80 __ZNSt3__120__vector_base_commonILb1EEC2Ev:
100005d80: 55                          	pushq	%rbp
100005d81: 48 89 e5                    	movq	%rsp, %rbp
100005d84: 48 89 7d f8                 	movq	%rdi, -8(%rbp)
100005d88: 5d                          	popq	%rbp
100005d89: c3                          	retq
100005d8a: 66 0f 1f 44 00 00           	nopw	(%rax,%rax)

0000000100005d90 __ZNSt3__1L15__get_nullptr_tEv:
100005d90: 55                          	pushq	%rbp
100005d91: 48 89 e5                    	movq	%rsp, %rbp
100005d94: 48 83 ec 10                 	subq	$16, %rsp
100005d98: 48 8d 7d f8                 	leaq	-8(%rbp), %rdi
100005d9c: 48 c7 c6 ff ff ff ff        	movq	$-1, %rsi
100005da3: e8 58 00 00 00              	callq	88 <__ZNSt3__19nullptr_tC1EMNS0_5__natEi>
100005da8: 48 8b 45 f8                 	movq	-8(%rbp), %rax
100005dac: 48 83 c4 10                 	addq	$16, %rsp
100005db0: 5d                          	popq	%rbp
100005db1: c3                          	retq
100005db2: 66 2e 0f 1f 84 00 00 00 00 00       	nopw	%cs:(%rax,%rax)
100005dbc: 0f 1f 40 00                 	nopl	(%rax)

0000000100005dc0 __ZNKSt3__19nullptr_tcvPT_I7AccountEEv:
100005dc0: 55                          	pushq	%rbp
100005dc1: 48 89 e5                    	movq	%rsp, %rbp
100005dc4: 31 c0                       	xorl	%eax, %eax
100005dc6: 48 89 7d f8                 	movq	%rdi, -8(%rbp)
100005dca: 5d                          	popq	%rbp
100005dcb: c3                          	retq
100005dcc: 0f 1f 40 00                 	nopl	(%rax)

0000000100005dd0 __ZNSt3__117__compressed_pairIP7AccountNS_9allocatorIS1_EEEC1INS_9nullptr_tENS_18__default_init_tagEEEOT_OT0_:
100005dd0: 55                          	pushq	%rbp
100005dd1: 48 89 e5                    	movq	%rsp, %rbp
100005dd4: 48 83 ec 20                 	subq	$32, %rsp
100005dd8: 48 89 7d f8                 	movq	%rdi, -8(%rbp)
100005ddc: 48 89 75 f0                 	movq	%rsi, -16(%rbp)
100005de0: 48 89 55 e8                 	movq	%rdx, -24(%rbp)
100005de4: 48 8b 7d f8                 	movq	-8(%rbp), %rdi
100005de8: 48 8b 75 f0                 	movq	-16(%rbp), %rsi
100005dec: 48 8b 55 e8                 	movq	-24(%rbp), %rdx
100005df0: e8 5b 00 00 00              	callq	91 <__ZNSt3__117__compressed_pairIP7AccountNS_9allocatorIS1_EEEC2INS_9nullptr_tENS_18__default_init_tagEEEOT_OT0_>
100005df5: 48 83 c4 20                 	addq	$32, %rsp
100005df9: 5d                          	popq	%rbp
100005dfa: c3                          	retq
100005dfb: 0f 1f 44 00 00              	nopl	(%rax,%rax)

0000000100005e00 __ZNSt3__19nullptr_tC1EMNS0_5__natEi:
100005e00: 55                          	pushq	%rbp
100005e01: 48 89 e5                    	movq	%rsp, %rbp
100005e04: 48 83 ec 10                 	subq	$16, %rsp
100005e08: 48 89 7d f8                 	movq	%rdi, -8(%rbp)
100005e0c: 48 89 75 f0                 	movq	%rsi, -16(%rbp)
100005e10: 48 8b 7d f8                 	movq	-8(%rbp), %rdi
100005e14: 48 8b 75 f0                 	movq	-16(%rbp), %rsi
100005e18: e8 13 00 00 00              	callq	19 <__ZNSt3__19nullptr_tC2EMNS0_5__natEi>
100005e1d: 48 83 c4 10                 	addq	$16, %rsp
100005e21: 5d                          	popq	%rbp
100005e22: c3                          	retq
100005e23: 66 2e 0f 1f 84 00 00 00 00 00       	nopw	%cs:(%rax,%rax)
100005e2d: 0f 1f 00                    	nopl	(%rax)

0000000100005e30 __ZNSt3__19nullptr_tC2EMNS0_5__natEi:
100005e30: 55                          	pushq	%rbp
100005e31: 48 89 e5                    	movq	%rsp, %rbp
100005e34: 48 89 7d f8                 	movq	%rdi, -8(%rbp)
100005e38: 48 89 75 f0                 	movq	%rsi, -16(%rbp)
100005e3c: 48 8b 45 f8                 	movq	-8(%rbp), %rax
100005e40: 48 c7 00 00 00 00 00        	movq	$0, (%rax)
100005e47: 5d                          	popq	%rbp
100005e48: c3                          	retq
100005e49: 0f 1f 80 00 00 00 00        	nopl	(%rax)

0000000100005e50 __ZNSt3__117__compressed_pairIP7AccountNS_9allocatorIS1_EEEC2INS_9nullptr_tENS_18__default_init_tagEEEOT_OT0_:
100005e50: 55                          	pushq	%rbp
100005e51: 48 89 e5                    	movq	%rsp, %rbp
100005e54: 48 83 ec 40                 	subq	$64, %rsp
100005e58: 48 89 7d f8                 	movq	%rdi, -8(%rbp)
100005e5c: 48 89 75 f0                 	movq	%rsi, -16(%rbp)
100005e60: 48 89 55 e8                 	movq	%rdx, -24(%rbp)
100005e64: 48 8b 45 f8                 	movq	-8(%rbp), %rax
100005e68: 48 89 c1                    	movq	%rax, %rcx
100005e6b: 48 8b 7d f0                 	movq	-16(%rbp), %rdi
100005e6f: 48 89 45 d8                 	movq	%rax, -40(%rbp)
100005e73: 48 89 4d d0                 	movq	%rcx, -48(%rbp)
100005e77: e8 34 00 00 00              	callq	52 <__ZNSt3__1L7forwardINS_9nullptr_tEEEOT_RNS_16remove_referenceIS2_E4typeE>
100005e7c: 48 8b 7d d0                 	movq	-48(%rbp), %rdi
100005e80: 48 89 c6                    	movq	%rax, %rsi
100005e83: e8 38 00 00 00              	callq	56 <__ZNSt3__122__compressed_pair_elemIP7AccountLi0ELb0EEC2INS_9nullptr_tEvEEOT_>
100005e88: 48 8b 45 d8                 	movq	-40(%rbp), %rax
100005e8c: 48 8b 7d e8                 	movq	-24(%rbp), %rdi
100005e90: 48 89 45 c8                 	movq	%rax, -56(%rbp)
100005e94: e8 67 00 00 00              	callq	103 <__ZNSt3__1L7forwardINS_18__default_init_tagEEEOT_RNS_16remove_referenceIS2_E4typeE>
100005e99: 48 8b 7d c8                 	movq	-56(%rbp), %rdi
100005e9d: 48 89 45 c0                 	movq	%rax, -64(%rbp)
100005ea1: e8 6a 00 00 00              	callq	106 <__ZNSt3__122__compressed_pair_elemINS_9allocatorI7AccountEELi1ELb1EEC2ENS_18__default_init_tagE>
100005ea6: 48 83 c4 40                 	addq	$64, %rsp
100005eaa: 5d                          	popq	%rbp
100005eab: c3                          	retq
100005eac: 0f 1f 40 00                 	nopl	(%rax)

0000000100005eb0 __ZNSt3__1L7forwardINS_9nullptr_tEEEOT_RNS_16remove_referenceIS2_E4typeE:
100005eb0: 55                          	pushq	%rbp
100005eb1: 48 89 e5                    	movq	%rsp, %rbp
100005eb4: 48 89 7d f8                 	movq	%rdi, -8(%rbp)
100005eb8: 48 8b 45 f8                 	movq	-8(%rbp), %rax
100005ebc: 5d                          	popq	%rbp
100005ebd: c3                          	retq
100005ebe: 66 90                       	nop

0000000100005ec0 __ZNSt3__122__compressed_pair_elemIP7AccountLi0ELb0EEC2INS_9nullptr_tEvEEOT_:
100005ec0: 55                          	pushq	%rbp
100005ec1: 48 89 e5                    	movq	%rsp, %rbp
100005ec4: 48 83 ec 20                 	subq	$32, %rsp
100005ec8: 48 89 7d f8                 	movq	%rdi, -8(%rbp)
100005ecc: 48 89 75 f0                 	movq	%rsi, -16(%rbp)
100005ed0: 48 8b 45 f8                 	movq	-8(%rbp), %rax
100005ed4: 48 8b 7d f0                 	movq	-16(%rbp), %rdi
100005ed8: 48 89 45 e8                 	movq	%rax, -24(%rbp)
100005edc: e8 cf ff ff ff              	callq	-49 <__ZNSt3__1L7forwardINS_9nullptr_tEEEOT_RNS_16remove_referenceIS2_E4typeE>
100005ee1: 48 89 c7                    	movq	%rax, %rdi
100005ee4: e8 d7 fe ff ff              	callq	-297 <__ZNKSt3__19nullptr_tcvPT_I7AccountEEv>
100005ee9: 48 8b 4d e8                 	movq	-24(%rbp), %rcx
100005eed: 48 89 01                    	movq	%rax, (%rcx)
100005ef0: 48 83 c4 20                 	addq	$32, %rsp
100005ef4: 5d                          	popq	%rbp
100005ef5: c3                          	retq
100005ef6: 66 2e 0f 1f 84 00 00 00 00 00       	nopw	%cs:(%rax,%rax)

0000000100005f00 __ZNSt3__1L7forwardINS_18__default_init_tagEEEOT_RNS_16remove_referenceIS2_E4typeE:
100005f00: 55                          	pushq	%rbp
100005f01: 48 89 e5                    	movq	%rsp, %rbp
100005f04: 48 89 7d f8                 	movq	%rdi, -8(%rbp)
100005f08: 48 8b 45 f8                 	movq	-8(%rbp), %rax
100005f0c: 5d                          	popq	%rbp
100005f0d: c3                          	retq
100005f0e: 66 90                       	nop

0000000100005f10 __ZNSt3__122__compressed_pair_elemINS_9allocatorI7AccountEELi1ELb1EEC2ENS_18__default_init_tagE:
100005f10: 55                          	pushq	%rbp
100005f11: 48 89 e5                    	movq	%rsp, %rbp
100005f14: 48 83 ec 10                 	subq	$16, %rsp
100005f18: 48 89 7d f0                 	movq	%rdi, -16(%rbp)
100005f1c: 48 8b 45 f0                 	movq	-16(%rbp), %rax
100005f20: 48 89 c7                    	movq	%rax, %rdi
100005f23: e8 08 00 00 00              	callq	8 <__ZNSt3__19allocatorI7AccountEC2Ev>
100005f28: 48 83 c4 10                 	addq	$16, %rsp
100005f2c: 5d                          	popq	%rbp
100005f2d: c3                          	retq
100005f2e: 66 90                       	nop

0000000100005f30 __ZNSt3__19allocatorI7AccountEC2Ev:
100005f30: 55                          	pushq	%rbp
100005f31: 48 89 e5                    	movq	%rsp, %rbp
100005f34: 48 89 7d f8                 	movq	%rdi, -8(%rbp)
100005f38: 5d                          	popq	%rbp
100005f39: c3                          	retq
100005f3a: 66 0f 1f 44 00 00           	nopw	(%rax,%rax)

0000000100005f40 __ZNSt3__1L10__distanceIPKiEENS_15iterator_traitsIT_E15difference_typeES4_S4_NS_26random_access_iterator_tagE:
100005f40: 55                          	pushq	%rbp
100005f41: 48 89 e5                    	movq	%rsp, %rbp
100005f44: 48 89 7d f0                 	movq	%rdi, -16(%rbp)
100005f48: 48 89 75 e8                 	movq	%rsi, -24(%rbp)
100005f4c: 48 8b 45 e8                 	movq	-24(%rbp), %rax
100005f50: 48 8b 4d f0                 	movq	-16(%rbp), %rcx
100005f54: 48 29 c8                    	subq	%rcx, %rax
100005f57: 48 c1 f8 02                 	sarq	$2, %rax
100005f5b: 5d                          	popq	%rbp
100005f5c: c3                          	retq
100005f5d: 0f 1f 00                    	nopl	(%rax)

0000000100005f60 __ZNKSt3__16vectorI7AccountNS_9allocatorIS1_EEE8max_sizeEv:
100005f60: 55                          	pushq	%rbp
100005f61: 48 89 e5                    	movq	%rsp, %rbp
100005f64: 48 83 ec 30                 	subq	$48, %rsp
100005f68: 48 89 7d f8                 	movq	%rdi, -8(%rbp)
100005f6c: 48 8b 7d f8                 	movq	-8(%rbp), %rdi
100005f70: e8 cb 01 00 00              	callq	459 <__ZNKSt3__113__vector_baseI7AccountNS_9allocatorIS1_EEE7__allocEv>
100005f75: 48 89 c7                    	movq	%rax, %rdi
100005f78: e8 a3 01 00 00              	callq	419 <__ZNSt3__116allocator_traitsINS_9allocatorI7AccountEEE8max_sizeERKS3_>
100005f7d: 48 89 45 f0                 	movq	%rax, -16(%rbp)
100005f81: e8 ea 01 00 00              	callq	490 <__ZNSt3__114numeric_limitsIlE3maxEv>
100005f86: 48 89 45 e8                 	movq	%rax, -24(%rbp)
100005f8a: 48 8d 7d f0                 	leaq	-16(%rbp), %rdi
100005f8e: 48 8d 75 e8                 	leaq	-24(%rbp), %rsi
100005f92: e8 59 01 00 00              	callq	345 <__ZNSt3__1L3minImEERKT_S3_S3_>
100005f97: 48 89 45 d0                 	movq	%rax, -48(%rbp)
100005f9b: e9 00 00 00 00              	jmp	0 <__ZNKSt3__16vectorI7AccountNS_9allocatorIS1_EEE8max_sizeEv+0x40>
100005fa0: 48 8b 45 d0                 	movq	-48(%rbp), %rax
100005fa4: 48 8b 00                    	movq	(%rax), %rax
100005fa7: 48 83 c4 30                 	addq	$48, %rsp
100005fab: 5d                          	popq	%rbp
100005fac: c3                          	retq
100005fad: 48 89 45 e0                 	movq	%rax, -32(%rbp)
100005fb1: 89 55 dc                    	movl	%edx, -36(%rbp)
100005fb4: 48 8b 7d e0                 	movq	-32(%rbp), %rdi
100005fb8: e8 51 1a 00 00              	callq	6737 <dyld_stub_binder+0x100007a0e>
100005fbd: 0f 1f 00                    	nopl	(%rax)

0000000100005fc0 __ZNSt3__116allocator_traitsINS_9allocatorI7AccountEEE8allocateERS3_m:
100005fc0: 55                          	pushq	%rbp
100005fc1: 48 89 e5                    	movq	%rsp, %rbp
100005fc4: 48 83 ec 10                 	subq	$16, %rsp
100005fc8: 31 c0                       	xorl	%eax, %eax
100005fca: 89 c2                       	movl	%eax, %edx
100005fcc: 48 89 7d f8                 	movq	%rdi, -8(%rbp)
100005fd0: 48 89 75 f0                 	movq	%rsi, -16(%rbp)
100005fd4: 48 8b 7d f8                 	movq	-8(%rbp), %rdi
100005fd8: 48 8b 75 f0                 	movq	-16(%rbp), %rsi
100005fdc: e8 9f 02 00 00              	callq	671 <__ZNSt3__19allocatorI7AccountE8allocateEmPKv>
100005fe1: 48 83 c4 10                 	addq	$16, %rsp
100005fe5: 5d                          	popq	%rbp
100005fe6: c3                          	retq
100005fe7: 66 0f 1f 84 00 00 00 00 00  	nopw	(%rax,%rax)

0000000100005ff0 __ZNSt3__113__vector_baseI7AccountNS_9allocatorIS1_EEE7__allocEv:
100005ff0: 55                          	pushq	%rbp
100005ff1: 48 89 e5                    	movq	%rsp, %rbp
100005ff4: 48 83 ec 10                 	subq	$16, %rsp
100005ff8: 48 89 7d f8                 	movq	%rdi, -8(%rbp)
100005ffc: 48 8b 45 f8                 	movq	-8(%rbp), %rax
100006000: 48 05 10 00 00 00           	addq	$16, %rax
100006006: 48 89 c7                    	movq	%rax, %rdi
100006009: e8 d2 03 00 00              	callq	978 <__ZNSt3__117__compressed_pairIP7AccountNS_9allocatorIS1_EEE6secondEv>
10000600e: 48 83 c4 10                 	addq	$16, %rsp
100006012: 5d                          	popq	%rbp
100006013: c3                          	retq
100006014: 66 2e 0f 1f 84 00 00 00 00 00       	nopw	%cs:(%rax,%rax)
10000601e: 66 90                       	nop

0000000100006020 __ZNSt3__113__vector_baseI7AccountNS_9allocatorIS1_EEE9__end_capEv:
100006020: 55                          	pushq	%rbp
100006021: 48 89 e5                    	movq	%rsp, %rbp
100006024: 48 83 ec 10                 	subq	$16, %rsp
100006028: 48 89 7d f8                 	movq	%rdi, -8(%rbp)
10000602c: 48 8b 45 f8                 	movq	-8(%rbp), %rax
100006030: 48 05 10 00 00 00           	addq	$16, %rax
100006036: 48 89 c7                    	movq	%rax, %rdi
100006039: e8 d2 03 00 00              	callq	978 <__ZNSt3__117__compressed_pairIP7AccountNS_9allocatorIS1_EEE5firstEv>
10000603e: 48 83 c4 10                 	addq	$16, %rsp
100006042: 5d                          	popq	%rbp
100006043: c3                          	retq
100006044: 66 2e 0f 1f 84 00 00 00 00 00       	nopw	%cs:(%rax,%rax)
10000604e: 66 90                       	nop

0000000100006050 __ZNKSt3__16vectorI7AccountNS_9allocatorIS1_EEE14__annotate_newEm:
100006050: 55                          	pushq	%rbp
100006051: 48 89 e5                    	movq	%rsp, %rbp
100006054: 48 83 ec 40                 	subq	$64, %rsp
100006058: 48 89 7d f8                 	movq	%rdi, -8(%rbp)
10000605c: 48 89 75 f0                 	movq	%rsi, -16(%rbp)
100006060: 48 8b 45 f8                 	movq	-8(%rbp), %rax
100006064: 48 89 c7                    	movq	%rax, %rdi
100006067: 48 89 45 e8                 	movq	%rax, -24(%rbp)
10000606b: e8 f0 03 00 00              	callq	1008 <__ZNKSt3__16vectorI7AccountNS_9allocatorIS1_EEE4dataEv>
100006070: 48 8b 7d e8                 	movq	-24(%rbp), %rdi
100006074: 48 89 45 e0                 	movq	%rax, -32(%rbp)
100006078: e8 e3 03 00 00              	callq	995 <__ZNKSt3__16vectorI7AccountNS_9allocatorIS1_EEE4dataEv>
10000607d: 48 8b 7d e8                 	movq	-24(%rbp), %rdi
100006081: 48 89 45 d8                 	movq	%rax, -40(%rbp)
100006085: e8 f6 03 00 00              	callq	1014 <__ZNKSt3__16vectorI7AccountNS_9allocatorIS1_EEE8capacityEv>
10000608a: 48 c1 e0 04                 	shlq	$4, %rax
10000608e: 48 8b 4d d8                 	movq	-40(%rbp), %rcx
100006092: 48 01 c1                    	addq	%rax, %rcx
100006095: 48 8b 7d e8                 	movq	-24(%rbp), %rdi
100006099: 48 89 4d d0                 	movq	%rcx, -48(%rbp)
10000609d: e8 be 03 00 00              	callq	958 <__ZNKSt3__16vectorI7AccountNS_9allocatorIS1_EEE4dataEv>
1000060a2: 48 8b 7d e8                 	movq	-24(%rbp), %rdi
1000060a6: 48 89 45 c8                 	movq	%rax, -56(%rbp)
1000060aa: e8 d1 03 00 00              	callq	977 <__ZNKSt3__16vectorI7AccountNS_9allocatorIS1_EEE8capacityEv>
1000060af: 48 c1 e0 04                 	shlq	$4, %rax
1000060b3: 48 8b 4d c8                 	movq	-56(%rbp), %rcx
1000060b7: 48 01 c1                    	addq	%rax, %rcx
1000060ba: 48 8b 7d e8                 	movq	-24(%rbp), %rdi
1000060be: 48 89 4d c0                 	movq	%rcx, -64(%rbp)
1000060c2: e8 99 03 00 00              	callq	921 <__ZNKSt3__16vectorI7AccountNS_9allocatorIS1_EEE4dataEv>
1000060c7: 48 8b 4d f0                 	movq	-16(%rbp), %rcx
1000060cb: 48 c1 e1 04                 	shlq	$4, %rcx
1000060cf: 48 01 c8                    	addq	%rcx, %rax
1000060d2: 48 8b 7d e8                 	movq	-24(%rbp), %rdi
1000060d6: 48 8b 75 e0                 	movq	-32(%rbp), %rsi
1000060da: 48 8b 55 d0                 	movq	-48(%rbp), %rdx
1000060de: 48 8b 4d c0                 	movq	-64(%rbp), %rcx
1000060e2: 49 89 c0                    	movq	%rax, %r8
1000060e5: e8 56 03 00 00              	callq	854 <__ZNKSt3__16vectorI7AccountNS_9allocatorIS1_EEE31__annotate_contiguous_containerEPKvS6_S6_S6_>
1000060ea: 48 83 c4 40                 	addq	$64, %rsp
1000060ee: 5d                          	popq	%rbp
1000060ef: c3                          	retq

00000001000060f0 __ZNSt3__1L3minImEERKT_S3_S3_:
1000060f0: 55                          	pushq	%rbp
1000060f1: 48 89 e5                    	movq	%rsp, %rbp
1000060f4: 48 83 ec 20                 	subq	$32, %rsp
1000060f8: 48 89 7d f8                 	movq	%rdi, -8(%rbp)
1000060fc: 48 89 75 f0                 	movq	%rsi, -16(%rbp)
100006100: 48 8b 7d f8                 	movq	-8(%rbp), %rdi
100006104: 48 8b 75 f0                 	movq	-16(%rbp), %rsi
100006108: e8 73 00 00 00              	callq	115 <__ZNSt3__1L3minImNS_6__lessImmEEEERKT_S5_S5_T0_>
10000610d: 48 83 c4 20                 	addq	$32, %rsp
100006111: 5d                          	popq	%rbp
100006112: c3                          	retq
100006113: 66 2e 0f 1f 84 00 00 00 00 00       	nopw	%cs:(%rax,%rax)
10000611d: 0f 1f 00                    	nopl	(%rax)

0000000100006120 __ZNSt3__116allocator_traitsINS_9allocatorI7AccountEEE8max_sizeERKS3_:
100006120: 55                          	pushq	%rbp
100006121: 48 89 e5                    	movq	%rsp, %rbp
100006124: 48 83 ec 20                 	subq	$32, %rsp
100006128: 48 89 7d f8                 	movq	%rdi, -8(%rbp)
10000612c: 48 8b 7d f8                 	movq	-8(%rbp), %rdi
100006130: e8 cb 00 00 00              	callq	203 <__ZNSt3__116allocator_traitsINS_9allocatorI7AccountEEE10__max_sizeENS_17integral_constantIbLb1EEERKS3_>
100006135: 48 83 c4 20                 	addq	$32, %rsp
100006139: 5d                          	popq	%rbp
10000613a: c3                          	retq
10000613b: 0f 1f 44 00 00              	nopl	(%rax,%rax)

0000000100006140 __ZNKSt3__113__vector_baseI7AccountNS_9allocatorIS1_EEE7__allocEv:
100006140: 55                          	pushq	%rbp
100006141: 48 89 e5                    	movq	%rsp, %rbp
100006144: 48 83 ec 10                 	subq	$16, %rsp
100006148: 48 89 7d f8                 	movq	%rdi, -8(%rbp)
10000614c: 48 8b 45 f8                 	movq	-8(%rbp), %rax
100006150: 48 05 10 00 00 00           	addq	$16, %rax
100006156: 48 89 c7                    	movq	%rax, %rdi
100006159: e8 e2 00 00 00              	callq	226 <__ZNKSt3__117__compressed_pairIP7AccountNS_9allocatorIS1_EEE6secondEv>
10000615e: 48 83 c4 10                 	addq	$16, %rsp
100006162: 5d                          	popq	%rbp
100006163: c3                          	retq
100006164: 66 2e 0f 1f 84 00 00 00 00 00       	nopw	%cs:(%rax,%rax)
10000616e: 66 90                       	nop

0000000100006170 __ZNSt3__114numeric_limitsIlE3maxEv:
100006170: 55                          	pushq	%rbp
100006171: 48 89 e5                    	movq	%rsp, %rbp
100006174: e8 f7 00 00 00              	callq	247 <__ZNSt3__123__libcpp_numeric_limitsIlLb1EE3maxEv>
100006179: 5d                          	popq	%rbp
10000617a: c3                          	retq
10000617b: 0f 1f 44 00 00              	nopl	(%rax,%rax)

0000000100006180 __ZNSt3__1L3minImNS_6__lessImmEEEERKT_S5_S5_T0_:
100006180: 55                          	pushq	%rbp
100006181: 48 89 e5                    	movq	%rsp, %rbp
100006184: 48 83 ec 20                 	subq	$32, %rsp
100006188: 48 89 7d f0                 	movq	%rdi, -16(%rbp)
10000618c: 48 89 75 e8                 	movq	%rsi, -24(%rbp)
100006190: 48 8b 75 e8                 	movq	-24(%rbp), %rsi
100006194: 48 8b 55 f0                 	movq	-16(%rbp), %rdx
100006198: 48 8d 7d f8                 	leaq	-8(%rbp), %rdi
10000619c: e8 2f 00 00 00              	callq	47 <__ZNKSt3__16__lessImmEclERKmS3_>
1000061a1: a8 01                       	testb	$1, %al
1000061a3: 0f 85 05 00 00 00           	jne	5 <__ZNSt3__1L3minImNS_6__lessImmEEEERKT_S5_S5_T0_+0x2e>
1000061a9: e9 0d 00 00 00              	jmp	13 <__ZNSt3__1L3minImNS_6__lessImmEEEERKT_S5_S5_T0_+0x3b>
1000061ae: 48 8b 45 e8                 	movq	-24(%rbp), %rax
1000061b2: 48 89 45 e0                 	movq	%rax, -32(%rbp)
1000061b6: e9 08 00 00 00              	jmp	8 <__ZNSt3__1L3minImNS_6__lessImmEEEERKT_S5_S5_T0_+0x43>
1000061bb: 48 8b 45 f0                 	movq	-16(%rbp), %rax
1000061bf: 48 89 45 e0                 	movq	%rax, -32(%rbp)
1000061c3: 48 8b 45 e0                 	movq	-32(%rbp), %rax
1000061c7: 48 83 c4 20                 	addq	$32, %rsp
1000061cb: 5d                          	popq	%rbp
1000061cc: c3                          	retq
1000061cd: 0f 1f 00                    	nopl	(%rax)

00000001000061d0 __ZNKSt3__16__lessImmEclERKmS3_:
1000061d0: 55                          	pushq	%rbp
1000061d1: 48 89 e5                    	movq	%rsp, %rbp
1000061d4: 48 89 7d f8                 	movq	%rdi, -8(%rbp)
1000061d8: 48 89 75 f0                 	movq	%rsi, -16(%rbp)
1000061dc: 48 89 55 e8                 	movq	%rdx, -24(%rbp)
1000061e0: 48 8b 45 f0                 	movq	-16(%rbp), %rax
1000061e4: 48 8b 00                    	movq	(%rax), %rax
1000061e7: 48 8b 4d e8                 	movq	-24(%rbp), %rcx
1000061eb: 48 3b 01                    	cmpq	(%rcx), %rax
1000061ee: 41 0f 92 c0                 	setb	%r8b
1000061f2: 41 80 e0 01                 	andb	$1, %r8b
1000061f6: 41 0f b6 c0                 	movzbl	%r8b, %eax
1000061fa: 5d                          	popq	%rbp
1000061fb: c3                          	retq
1000061fc: 0f 1f 40 00                 	nopl	(%rax)

0000000100006200 __ZNSt3__116allocator_traitsINS_9allocatorI7AccountEEE10__max_sizeENS_17integral_constantIbLb1EEERKS3_:
100006200: 55                          	pushq	%rbp
100006201: 48 89 e5                    	movq	%rsp, %rbp
100006204: 48 83 ec 10                 	subq	$16, %rsp
100006208: 48 89 7d f0                 	movq	%rdi, -16(%rbp)
10000620c: 48 8b 7d f0                 	movq	-16(%rbp), %rdi
100006210: e8 0b 00 00 00              	callq	11 <__ZNKSt3__19allocatorI7AccountE8max_sizeEv>
100006215: 48 83 c4 10                 	addq	$16, %rsp
100006219: 5d                          	popq	%rbp
10000621a: c3                          	retq
10000621b: 0f 1f 44 00 00              	nopl	(%rax,%rax)

0000000100006220 __ZNKSt3__19allocatorI7AccountE8max_sizeEv:
100006220: 55                          	pushq	%rbp
100006221: 48 89 e5                    	movq	%rsp, %rbp
100006224: 48 89 7d f8                 	movq	%rdi, -8(%rbp)
100006228: 48 b8 ff ff ff ff ff ff ff 0f       	movabsq	$1152921504606846975, %rax
100006232: 5d                          	popq	%rbp
100006233: c3                          	retq
100006234: 66 2e 0f 1f 84 00 00 00 00 00       	nopw	%cs:(%rax,%rax)
10000623e: 66 90                       	nop

0000000100006240 __ZNKSt3__117__compressed_pairIP7AccountNS_9allocatorIS1_EEE6secondEv:
100006240: 55                          	pushq	%rbp
100006241: 48 89 e5                    	movq	%rsp, %rbp
100006244: 48 83 ec 10                 	subq	$16, %rsp
100006248: 48 89 7d f8                 	movq	%rdi, -8(%rbp)
10000624c: 48 8b 45 f8                 	movq	-8(%rbp), %rax
100006250: 48 89 c7                    	movq	%rax, %rdi
100006253: e8 08 00 00 00              	callq	8 <__ZNKSt3__122__compressed_pair_elemINS_9allocatorI7AccountEELi1ELb1EE5__getEv>
100006258: 48 83 c4 10                 	addq	$16, %rsp
10000625c: 5d                          	popq	%rbp
10000625d: c3                          	retq
10000625e: 66 90                       	nop

0000000100006260 __ZNKSt3__122__compressed_pair_elemINS_9allocatorI7AccountEELi1ELb1EE5__getEv:
100006260: 55                          	pushq	%rbp
100006261: 48 89 e5                    	movq	%rsp, %rbp
100006264: 48 89 7d f8                 	movq	%rdi, -8(%rbp)
100006268: 48 8b 45 f8                 	movq	-8(%rbp), %rax
10000626c: 5d                          	popq	%rbp
10000626d: c3                          	retq
10000626e: 66 90                       	nop

0000000100006270 __ZNSt3__123__libcpp_numeric_limitsIlLb1EE3maxEv:
100006270: 55                          	pushq	%rbp
100006271: 48 89 e5                    	movq	%rsp, %rbp
100006274: 48 b8 ff ff ff ff ff ff ff 7f       	movabsq	$9223372036854775807, %rax
10000627e: 5d                          	popq	%rbp
10000627f: c3                          	retq

0000000100006280 __ZNSt3__19allocatorI7AccountE8allocateEmPKv:
100006280: 55                          	pushq	%rbp
100006281: 48 89 e5                    	movq	%rsp, %rbp
100006284: 48 83 ec 20                 	subq	$32, %rsp
100006288: 48 89 7d f8                 	movq	%rdi, -8(%rbp)
10000628c: 48 89 75 f0                 	movq	%rsi, -16(%rbp)
100006290: 48 89 55 e8                 	movq	%rdx, -24(%rbp)
100006294: 48 8b 7d f8                 	movq	-8(%rbp), %rdi
100006298: 48 8b 45 f0                 	movq	-16(%rbp), %rax
10000629c: 48 89 45 e0                 	movq	%rax, -32(%rbp)
1000062a0: e8 7b ff ff ff              	callq	-133 <__ZNKSt3__19allocatorI7AccountE8max_sizeEv>
1000062a5: 48 8b 4d e0                 	movq	-32(%rbp), %rcx
1000062a9: 48 39 c1                    	cmpq	%rax, %rcx
1000062ac: 0f 86 0c 00 00 00           	jbe	12 <__ZNSt3__19allocatorI7AccountE8allocateEmPKv+0x3e>
1000062b2: 48 8d 3d 34 1b 00 00        	leaq	6964(%rip), %rdi
1000062b9: e8 22 00 00 00              	callq	34 <__ZNSt3__1L20__throw_length_errorEPKc>
1000062be: 48 8b 45 f0                 	movq	-16(%rbp), %rax
1000062c2: 48 c1 e0 04                 	shlq	$4, %rax
1000062c6: 48 89 c7                    	movq	%rax, %rdi
1000062c9: be 04 00 00 00              	movl	$4, %esi
1000062ce: e8 6d 00 00 00              	callq	109 <__ZNSt3__1L17__libcpp_allocateEmm>
1000062d3: 48 83 c4 20                 	addq	$32, %rsp
1000062d7: 5d                          	popq	%rbp
1000062d8: c3                          	retq
1000062d9: 0f 1f 80 00 00 00 00        	nopl	(%rax)

00000001000062e0 __ZNSt3__1L20__throw_length_errorEPKc:
1000062e0: 55                          	pushq	%rbp
1000062e1: 48 89 e5                    	movq	%rsp, %rbp
1000062e4: 48 83 ec 20                 	subq	$32, %rsp
1000062e8: 48 89 7d f8                 	movq	%rdi, -8(%rbp)
1000062ec: bf 10 00 00 00              	movl	$16, %edi
1000062f1: e8 0c 17 00 00              	callq	5900 <dyld_stub_binder+0x100007a02>
1000062f6: 48 89 c1                    	movq	%rax, %rcx
1000062f9: 48 8b 75 f8                 	movq	-8(%rbp), %rsi
1000062fd: 48 89 c7                    	movq	%rax, %rdi
100006300: 48 89 4d e0                 	movq	%rcx, -32(%rbp)
100006304: e8 57 00 00 00              	callq	87 <__ZNSt12length_errorC1EPKc>
100006309: e9 00 00 00 00              	jmp	0 <__ZNSt3__1L20__throw_length_errorEPKc+0x2e>
10000630e: 48 8b 35 03 1d 00 00        	movq	7427(%rip), %rsi
100006315: 48 8b 15 e4 1c 00 00        	movq	7396(%rip), %rdx
10000631c: 48 8b 7d e0                 	movq	-32(%rbp), %rdi
100006320: e8 fb 16 00 00              	callq	5883 <dyld_stub_binder+0x100007a20>
100006325: 48 89 45 f0                 	movq	%rax, -16(%rbp)
100006329: 89 55 ec                    	movl	%edx, -20(%rbp)
10000632c: 48 8b 7d e0                 	movq	-32(%rbp), %rdi
100006330: e8 e5 16 00 00              	callq	5861 <dyld_stub_binder+0x100007a1a>
100006335: 48 8b 7d f0                 	movq	-16(%rbp), %rdi
100006339: e8 04 16 00 00              	callq	5636 <dyld_stub_binder+0x100007942>
10000633e: 0f 0b                       	ud2

0000000100006340 __ZNSt3__1L17__libcpp_allocateEmm:
100006340: 55                          	pushq	%rbp
100006341: 48 89 e5                    	movq	%rsp, %rbp
100006344: 48 83 ec 10                 	subq	$16, %rsp
100006348: 48 89 7d f8                 	movq	%rdi, -8(%rbp)
10000634c: 48 89 75 f0                 	movq	%rsi, -16(%rbp)
100006350: 48 8b 7d f8                 	movq	-8(%rbp), %rdi
100006354: e8 a3 16 00 00              	callq	5795 <dyld_stub_binder+0x1000079fc>
100006359: 48 83 c4 10                 	addq	$16, %rsp
10000635d: 5d                          	popq	%rbp
10000635e: c3                          	retq
10000635f: 90                          	nop

0000000100006360 __ZNSt12length_errorC1EPKc:
100006360: 55                          	pushq	%rbp
100006361: 48 89 e5                    	movq	%rsp, %rbp
100006364: 48 83 ec 10                 	subq	$16, %rsp
100006368: 48 89 7d f8                 	movq	%rdi, -8(%rbp)
10000636c: 48 89 75 f0                 	movq	%rsi, -16(%rbp)
100006370: 48 8b 7d f8                 	movq	-8(%rbp), %rdi
100006374: 48 8b 75 f0                 	movq	-16(%rbp), %rsi
100006378: e8 13 00 00 00              	callq	19 <__ZNSt12length_errorC2EPKc>
10000637d: 48 83 c4 10                 	addq	$16, %rsp
100006381: 5d                          	popq	%rbp
100006382: c3                          	retq
100006383: 66 2e 0f 1f 84 00 00 00 00 00       	nopw	%cs:(%rax,%rax)
10000638d: 0f 1f 00                    	nopl	(%rax)

0000000100006390 __ZNSt12length_errorC2EPKc:
100006390: 55                          	pushq	%rbp
100006391: 48 89 e5                    	movq	%rsp, %rbp
100006394: 48 83 ec 20                 	subq	$32, %rsp
100006398: 48 89 7d f8                 	movq	%rdi, -8(%rbp)
10000639c: 48 89 75 f0                 	movq	%rsi, -16(%rbp)
1000063a0: 48 8b 45 f8                 	movq	-8(%rbp), %rax
1000063a4: 48 89 c1                    	movq	%rax, %rcx
1000063a7: 48 8b 75 f0                 	movq	-16(%rbp), %rsi
1000063ab: 48 89 cf                    	movq	%rcx, %rdi
1000063ae: 48 89 45 e8                 	movq	%rax, -24(%rbp)
1000063b2: e8 af 15 00 00              	callq	5551 <dyld_stub_binder+0x100007966>
1000063b7: 48 8b 05 62 1c 00 00        	movq	7266(%rip), %rax
1000063be: 48 05 10 00 00 00           	addq	$16, %rax
1000063c4: 48 8b 4d e8                 	movq	-24(%rbp), %rcx
1000063c8: 48 89 01                    	movq	%rax, (%rcx)
1000063cb: 48 83 c4 20                 	addq	$32, %rsp
1000063cf: 5d                          	popq	%rbp
1000063d0: c3                          	retq
1000063d1: 66 2e 0f 1f 84 00 00 00 00 00       	nopw	%cs:(%rax,%rax)
1000063db: 0f 1f 44 00 00              	nopl	(%rax,%rax)

00000001000063e0 __ZNSt3__117__compressed_pairIP7AccountNS_9allocatorIS1_EEE6secondEv:
1000063e0: 55                          	pushq	%rbp
1000063e1: 48 89 e5                    	movq	%rsp, %rbp
1000063e4: 48 83 ec 10                 	subq	$16, %rsp
1000063e8: 48 89 7d f8                 	movq	%rdi, -8(%rbp)
1000063ec: 48 8b 45 f8                 	movq	-8(%rbp), %rax
1000063f0: 48 89 c7                    	movq	%rax, %rdi
1000063f3: e8 08 00 00 00              	callq	8 <__ZNSt3__122__compressed_pair_elemINS_9allocatorI7AccountEELi1ELb1EE5__getEv>
1000063f8: 48 83 c4 10                 	addq	$16, %rsp
1000063fc: 5d                          	popq	%rbp
1000063fd: c3                          	retq
1000063fe: 66 90                       	nop

0000000100006400 __ZNSt3__122__compressed_pair_elemINS_9allocatorI7AccountEELi1ELb1EE5__getEv:
100006400: 55                          	pushq	%rbp
100006401: 48 89 e5                    	movq	%rsp, %rbp
100006404: 48 89 7d f8                 	movq	%rdi, -8(%rbp)
100006408: 48 8b 45 f8                 	movq	-8(%rbp), %rax
10000640c: 5d                          	popq	%rbp
10000640d: c3                          	retq
10000640e: 66 90                       	nop

0000000100006410 __ZNSt3__117__compressed_pairIP7AccountNS_9allocatorIS1_EEE5firstEv:
100006410: 55                          	pushq	%rbp
100006411: 48 89 e5                    	movq	%rsp, %rbp
100006414: 48 83 ec 10                 	subq	$16, %rsp
100006418: 48 89 7d f8                 	movq	%rdi, -8(%rbp)
10000641c: 48 8b 45 f8                 	movq	-8(%rbp), %rax
100006420: 48 89 c7                    	movq	%rax, %rdi
100006423: e8 08 00 00 00              	callq	8 <__ZNSt3__122__compressed_pair_elemIP7AccountLi0ELb0EE5__getEv>
100006428: 48 83 c4 10                 	addq	$16, %rsp
10000642c: 5d                          	popq	%rbp
10000642d: c3                          	retq
10000642e: 66 90                       	nop

0000000100006430 __ZNSt3__122__compressed_pair_elemIP7AccountLi0ELb0EE5__getEv:
100006430: 55                          	pushq	%rbp
100006431: 48 89 e5                    	movq	%rsp, %rbp
100006434: 48 89 7d f8                 	movq	%rdi, -8(%rbp)
100006438: 48 8b 45 f8                 	movq	-8(%rbp), %rax
10000643c: 5d                          	popq	%rbp
10000643d: c3                          	retq
10000643e: 66 90                       	nop

0000000100006440 __ZNKSt3__16vectorI7AccountNS_9allocatorIS1_EEE31__annotate_contiguous_containerEPKvS6_S6_S6_:
100006440: 55                          	pushq	%rbp
100006441: 48 89 e5                    	movq	%rsp, %rbp
100006444: 48 89 7d f8                 	movq	%rdi, -8(%rbp)
100006448: 48 89 75 f0                 	movq	%rsi, -16(%rbp)
10000644c: 48 89 55 e8                 	movq	%rdx, -24(%rbp)
100006450: 48 89 4d e0                 	movq	%rcx, -32(%rbp)
100006454: 4c 89 45 d8                 	movq	%r8, -40(%rbp)
100006458: 5d                          	popq	%rbp
100006459: c3                          	retq
10000645a: 66 0f 1f 44 00 00           	nopw	(%rax,%rax)

0000000100006460 __ZNKSt3__16vectorI7AccountNS_9allocatorIS1_EEE4dataEv:
100006460: 55                          	pushq	%rbp
100006461: 48 89 e5                    	movq	%rsp, %rbp
100006464: 48 83 ec 10                 	subq	$16, %rsp
100006468: 48 89 7d f8                 	movq	%rdi, -8(%rbp)
10000646c: 48 8b 45 f8                 	movq	-8(%rbp), %rax
100006470: 48 8b 38                    	movq	(%rax), %rdi
100006473: e8 28 00 00 00              	callq	40 <__ZNSt3__1L12__to_addressI7AccountEEPT_S3_>
100006478: 48 83 c4 10                 	addq	$16, %rsp
10000647c: 5d                          	popq	%rbp
10000647d: c3                          	retq
10000647e: 66 90                       	nop

0000000100006480 __ZNKSt3__16vectorI7AccountNS_9allocatorIS1_EEE8capacityEv:
100006480: 55                          	pushq	%rbp
100006481: 48 89 e5                    	movq	%rsp, %rbp
100006484: 48 83 ec 10                 	subq	$16, %rsp
100006488: 48 89 7d f8                 	movq	%rdi, -8(%rbp)
10000648c: 48 8b 45 f8                 	movq	-8(%rbp), %rax
100006490: 48 89 c7                    	movq	%rax, %rdi
100006493: e8 18 00 00 00              	callq	24 <__ZNKSt3__113__vector_baseI7AccountNS_9allocatorIS1_EEE8capacityEv>
100006498: 48 83 c4 10                 	addq	$16, %rsp
10000649c: 5d                          	popq	%rbp
10000649d: c3                          	retq
10000649e: 66 90                       	nop

00000001000064a0 __ZNSt3__1L12__to_addressI7AccountEEPT_S3_:
1000064a0: 55                          	pushq	%rbp
1000064a1: 48 89 e5                    	movq	%rsp, %rbp
1000064a4: 48 89 7d f8                 	movq	%rdi, -8(%rbp)
1000064a8: 48 8b 45 f8                 	movq	-8(%rbp), %rax
1000064ac: 5d                          	popq	%rbp
1000064ad: c3                          	retq
1000064ae: 66 90                       	nop

00000001000064b0 __ZNKSt3__113__vector_baseI7AccountNS_9allocatorIS1_EEE8capacityEv:
1000064b0: 55                          	pushq	%rbp
1000064b1: 48 89 e5                    	movq	%rsp, %rbp
1000064b4: 48 83 ec 10                 	subq	$16, %rsp
1000064b8: 48 89 7d f8                 	movq	%rdi, -8(%rbp)
1000064bc: 48 8b 45 f8                 	movq	-8(%rbp), %rax
1000064c0: 48 89 c7                    	movq	%rax, %rdi
1000064c3: 48 89 45 f0                 	movq	%rax, -16(%rbp)
1000064c7: e8 24 00 00 00              	callq	36 <__ZNKSt3__113__vector_baseI7AccountNS_9allocatorIS1_EEE9__end_capEv>
1000064cc: 48 8b 00                    	movq	(%rax), %rax
1000064cf: 48 8b 4d f0                 	movq	-16(%rbp), %rcx
1000064d3: 48 8b 11                    	movq	(%rcx), %rdx
1000064d6: 48 29 d0                    	subq	%rdx, %rax
1000064d9: 48 c1 f8 04                 	sarq	$4, %rax
1000064dd: 48 83 c4 10                 	addq	$16, %rsp
1000064e1: 5d                          	popq	%rbp
1000064e2: c3                          	retq
1000064e3: 66 2e 0f 1f 84 00 00 00 00 00       	nopw	%cs:(%rax,%rax)
1000064ed: 0f 1f 00                    	nopl	(%rax)

00000001000064f0 __ZNKSt3__113__vector_baseI7AccountNS_9allocatorIS1_EEE9__end_capEv:
1000064f0: 55                          	pushq	%rbp
1000064f1: 48 89 e5                    	movq	%rsp, %rbp
1000064f4: 48 83 ec 10                 	subq	$16, %rsp
1000064f8: 48 89 7d f8                 	movq	%rdi, -8(%rbp)
1000064fc: 48 8b 45 f8                 	movq	-8(%rbp), %rax
100006500: 48 05 10 00 00 00           	addq	$16, %rax
100006506: 48 89 c7                    	movq	%rax, %rdi
100006509: e8 12 00 00 00              	callq	18 <__ZNKSt3__117__compressed_pairIP7AccountNS_9allocatorIS1_EEE5firstEv>
10000650e: 48 83 c4 10                 	addq	$16, %rsp
100006512: 5d                          	popq	%rbp
100006513: c3                          	retq
100006514: 66 2e 0f 1f 84 00 00 00 00 00       	nopw	%cs:(%rax,%rax)
10000651e: 66 90                       	nop

0000000100006520 __ZNKSt3__117__compressed_pairIP7AccountNS_9allocatorIS1_EEE5firstEv:
100006520: 55                          	pushq	%rbp
100006521: 48 89 e5                    	movq	%rsp, %rbp
100006524: 48 83 ec 10                 	subq	$16, %rsp
100006528: 48 89 7d f8                 	movq	%rdi, -8(%rbp)
10000652c: 48 8b 45 f8                 	movq	-8(%rbp), %rax
100006530: 48 89 c7                    	movq	%rax, %rdi
100006533: e8 08 00 00 00              	callq	8 <__ZNKSt3__122__compressed_pair_elemIP7AccountLi0ELb0EE5__getEv>
100006538: 48 83 c4 10                 	addq	$16, %rsp
10000653c: 5d                          	popq	%rbp
10000653d: c3                          	retq
10000653e: 66 90                       	nop

0000000100006540 __ZNKSt3__122__compressed_pair_elemIP7AccountLi0ELb0EE5__getEv:
100006540: 55                          	pushq	%rbp
100006541: 48 89 e5                    	movq	%rsp, %rbp
100006544: 48 89 7d f8                 	movq	%rdi, -8(%rbp)
100006548: 48 8b 45 f8                 	movq	-8(%rbp), %rax
10000654c: 5d                          	popq	%rbp
10000654d: c3                          	retq
10000654e: 66 90                       	nop

0000000100006550 __ZNSt3__16vectorI7AccountNS_9allocatorIS1_EEE21_ConstructTransactionC1ERS4_m:
100006550: 55                          	pushq	%rbp
100006551: 48 89 e5                    	movq	%rsp, %rbp
100006554: 48 83 ec 20                 	subq	$32, %rsp
100006558: 48 89 7d f8                 	movq	%rdi, -8(%rbp)
10000655c: 48 89 75 f0                 	movq	%rsi, -16(%rbp)
100006560: 48 89 55 e8                 	movq	%rdx, -24(%rbp)
100006564: 48 8b 7d f8                 	movq	-8(%rbp), %rdi
100006568: 48 8b 75 f0                 	movq	-16(%rbp), %rsi
10000656c: 48 8b 55 e8                 	movq	-24(%rbp), %rdx
100006570: e8 ab 00 00 00              	callq	171 <__ZNSt3__16vectorI7AccountNS_9allocatorIS1_EEE21_ConstructTransactionC2ERS4_m>
100006575: 48 83 c4 20                 	addq	$32, %rsp
100006579: 5d                          	popq	%rbp
10000657a: c3                          	retq
10000657b: 0f 1f 44 00 00              	nopl	(%rax,%rax)

0000000100006580 __ZNSt3__116allocator_traitsINS_9allocatorI7AccountEEE25__construct_range_forwardIPKiPS2_EEvRS3_T_SA_RT0_:
100006580: 55                          	pushq	%rbp
100006581: 48 89 e5                    	movq	%rsp, %rbp
100006584: 48 83 ec 30                 	subq	$48, %rsp
100006588: 48 89 7d f8                 	movq	%rdi, -8(%rbp)
10000658c: 48 89 75 f0                 	movq	%rsi, -16(%rbp)
100006590: 48 89 55 e8                 	movq	%rdx, -24(%rbp)
100006594: 48 89 4d e0                 	movq	%rcx, -32(%rbp)
100006598: 48 8b 45 f0                 	movq	-16(%rbp), %rax
10000659c: 48 3b 45 e8                 	cmpq	-24(%rbp), %rax
1000065a0: 0f 84 4b 00 00 00           	je	75 <__ZNSt3__116allocator_traitsINS_9allocatorI7AccountEEE25__construct_range_forwardIPKiPS2_EEvRS3_T_SA_RT0_+0x71>
1000065a6: 48 8b 7d f8                 	movq	-8(%rbp), %rdi
1000065aa: 48 8b 45 e0                 	movq	-32(%rbp), %rax
1000065ae: 48 8b 00                    	movq	(%rax), %rax
1000065b1: 48 89 7d d8                 	movq	%rdi, -40(%rbp)
1000065b5: 48 89 c7                    	movq	%rax, %rdi
1000065b8: e8 e3 fe ff ff              	callq	-285 <__ZNSt3__1L12__to_addressI7AccountEEPT_S3_>
1000065bd: 48 8b 55 f0                 	movq	-16(%rbp), %rdx
1000065c1: 48 8b 7d d8                 	movq	-40(%rbp), %rdi
1000065c5: 48 89 c6                    	movq	%rax, %rsi
1000065c8: e8 93 00 00 00              	callq	147 <__ZNSt3__116allocator_traitsINS_9allocatorI7AccountEEE9constructIS2_iEEvRS3_PT_RKT0_>
1000065cd: 48 8b 45 f0                 	movq	-16(%rbp), %rax
1000065d1: 48 05 04 00 00 00           	addq	$4, %rax
1000065d7: 48 89 45 f0                 	movq	%rax, -16(%rbp)
1000065db: 48 8b 45 e0                 	movq	-32(%rbp), %rax
1000065df: 48 8b 08                    	movq	(%rax), %rcx
1000065e2: 48 81 c1 10 00 00 00        	addq	$16, %rcx
1000065e9: 48 89 08                    	movq	%rcx, (%rax)
1000065ec: e9 a7 ff ff ff              	jmp	-89 <__ZNSt3__116allocator_traitsINS_9allocatorI7AccountEEE25__construct_range_forwardIPKiPS2_EEvRS3_T_SA_RT0_+0x18>
1000065f1: 48 83 c4 30                 	addq	$48, %rsp
1000065f5: 5d                          	popq	%rbp
1000065f6: c3                          	retq
1000065f7: 66 0f 1f 84 00 00 00 00 00  	nopw	(%rax,%rax)

0000000100006600 __ZNSt3__16vectorIiNS_9allocatorIiEEE21_ConstructTransactionD1Ev:
100006600: 55                          	pushq	%rbp
100006601: 48 89 e5                    	movq	%rsp, %rbp
100006604: 48 83 ec 10                 	subq	$16, %rsp
100006608: 48 89 7d f8                 	movq	%rdi, -8(%rbp)
10000660c: 48 8b 7d f8                 	movq	-8(%rbp), %rdi
100006610: e8 db 00 00 00              	callq	219 <__ZNSt3__16vectorIiNS_9allocatorIiEEE21_ConstructTransactionD2Ev>
100006615: 48 83 c4 10                 	addq	$16, %rsp
100006619: 5d                          	popq	%rbp
10000661a: c3                          	retq
10000661b: 0f 1f 44 00 00              	nopl	(%rax,%rax)

0000000100006620 __ZNSt3__16vectorI7AccountNS_9allocatorIS1_EEE21_ConstructTransactionC2ERS4_m:
100006620: 55                          	pushq	%rbp
100006621: 48 89 e5                    	movq	%rsp, %rbp
100006624: 48 89 7d f8                 	movq	%rdi, -8(%rbp)
100006628: 48 89 75 f0                 	movq	%rsi, -16(%rbp)
10000662c: 48 89 55 e8                 	movq	%rdx, -24(%rbp)
100006630: 48 8b 45 f8                 	movq	-8(%rbp), %rax
100006634: 48 8b 4d f0                 	movq	-16(%rbp), %rcx
100006638: 48 89 08                    	movq	%rcx, (%rax)
10000663b: 48 8b 4d f0                 	movq	-16(%rbp), %rcx
10000663f: 48 8b 49 08                 	movq	8(%rcx), %rcx
100006643: 48 89 48 08                 	movq	%rcx, 8(%rax)
100006647: 48 8b 4d f0                 	movq	-16(%rbp), %rcx
10000664b: 48 8b 49 08                 	movq	8(%rcx), %rcx
10000664f: 48 8b 55 e8                 	movq	-24(%rbp), %rdx
100006653: 48 c1 e2 04                 	shlq	$4, %rdx
100006657: 48 01 d1                    	addq	%rdx, %rcx
10000665a: 48 89 48 10                 	movq	%rcx, 16(%rax)
10000665e: 5d                          	popq	%rbp
10000665f: c3                          	retq

0000000100006660 __ZNSt3__116allocator_traitsINS_9allocatorI7AccountEEE9constructIS2_iEEvRS3_PT_RKT0_:
100006660: 55                          	pushq	%rbp
100006661: 48 89 e5                    	movq	%rsp, %rbp
100006664: 48 83 ec 30                 	subq	$48, %rsp
100006668: 48 89 7d f8                 	movq	%rdi, -8(%rbp)
10000666c: 48 89 75 f0                 	movq	%rsi, -16(%rbp)
100006670: 48 89 55 e8                 	movq	%rdx, -24(%rbp)
100006674: 48 8b 7d f8                 	movq	-8(%rbp), %rdi
100006678: 48 8b 75 f0                 	movq	-16(%rbp), %rsi
10000667c: 48 8b 55 e8                 	movq	-24(%rbp), %rdx
100006680: e8 0b 00 00 00              	callq	11 <__ZNSt3__116allocator_traitsINS_9allocatorI7AccountEEE11__constructIS2_iEEvNS_17integral_constantIbLb1EEERS3_PT_RKT0_>
100006685: 48 83 c4 30                 	addq	$48, %rsp
100006689: 5d                          	popq	%rbp
10000668a: c3                          	retq
10000668b: 0f 1f 44 00 00              	nopl	(%rax,%rax)

0000000100006690 __ZNSt3__116allocator_traitsINS_9allocatorI7AccountEEE11__constructIS2_iEEvNS_17integral_constantIbLb1EEERS3_PT_RKT0_:
100006690: 55                          	pushq	%rbp
100006691: 48 89 e5                    	movq	%rsp, %rbp
100006694: 48 83 ec 20                 	subq	$32, %rsp
100006698: 48 89 7d f0                 	movq	%rdi, -16(%rbp)
10000669c: 48 89 75 e8                 	movq	%rsi, -24(%rbp)
1000066a0: 48 89 55 e0                 	movq	%rdx, -32(%rbp)
1000066a4: 48 8b 7d f0                 	movq	-16(%rbp), %rdi
1000066a8: 48 8b 75 e8                 	movq	-24(%rbp), %rsi
1000066ac: 48 8b 55 e0                 	movq	-32(%rbp), %rdx
1000066b0: e8 0b 00 00 00              	callq	11 <__ZNSt3__19allocatorI7AccountE9constructIiEEvPS1_RKT_>
1000066b5: 48 83 c4 20                 	addq	$32, %rsp
1000066b9: 5d                          	popq	%rbp
1000066ba: c3                          	retq
1000066bb: 0f 1f 44 00 00              	nopl	(%rax,%rax)

00000001000066c0 __ZNSt3__19allocatorI7AccountE9constructIiEEvPS1_RKT_:
1000066c0: 55                          	pushq	%rbp
1000066c1: 48 89 e5                    	movq	%rsp, %rbp
1000066c4: 48 83 ec 20                 	subq	$32, %rsp
1000066c8: 48 89 7d f8                 	movq	%rdi, -8(%rbp)
1000066cc: 48 89 75 f0                 	movq	%rsi, -16(%rbp)
1000066d0: 48 89 55 e8                 	movq	%rdx, -24(%rbp)
1000066d4: 48 8b 45 f0                 	movq	-16(%rbp), %rax
1000066d8: 48 8b 4d e8                 	movq	-24(%rbp), %rcx
1000066dc: 8b 31                       	movl	(%rcx), %esi
1000066de: 48 89 c7                    	movq	%rax, %rdi
1000066e1: e8 fa d6 ff ff              	callq	-10502 <__ZN7AccountC1Ei>
1000066e6: 48 83 c4 20                 	addq	$32, %rsp
1000066ea: 5d                          	popq	%rbp
1000066eb: c3                          	retq
1000066ec: 0f 1f 40 00                 	nopl	(%rax)

00000001000066f0 __ZNSt3__16vectorIiNS_9allocatorIiEEE21_ConstructTransactionD2Ev:
1000066f0: 55                          	pushq	%rbp
1000066f1: 48 89 e5                    	movq	%rsp, %rbp
1000066f4: 48 89 7d f8                 	movq	%rdi, -8(%rbp)
1000066f8: 48 8b 45 f8                 	movq	-8(%rbp), %rax
1000066fc: 48 8b 48 08                 	movq	8(%rax), %rcx
100006700: 48 8b 00                    	movq	(%rax), %rax
100006703: 48 89 48 08                 	movq	%rcx, 8(%rax)
100006707: 5d                          	popq	%rbp
100006708: c3                          	retq
100006709: 0f 1f 80 00 00 00 00        	nopl	(%rax)

0000000100006710 __ZNSt3__113__vector_baseI7AccountNS_9allocatorIS1_EEE5clearEv:
100006710: 55                          	pushq	%rbp
100006711: 48 89 e5                    	movq	%rsp, %rbp
100006714: 48 83 ec 10                 	subq	$16, %rsp
100006718: 48 89 7d f8                 	movq	%rdi, -8(%rbp)
10000671c: 48 8b 45 f8                 	movq	-8(%rbp), %rax
100006720: 48 8b 30                    	movq	(%rax), %rsi
100006723: 48 89 c7                    	movq	%rax, %rdi
100006726: e8 45 00 00 00              	callq	69 <__ZNSt3__113__vector_baseI7AccountNS_9allocatorIS1_EEE17__destruct_at_endEPS1_>
10000672b: 48 83 c4 10                 	addq	$16, %rsp
10000672f: 5d                          	popq	%rbp
100006730: c3                          	retq
100006731: 66 2e 0f 1f 84 00 00 00 00 00       	nopw	%cs:(%rax,%rax)
10000673b: 0f 1f 44 00 00              	nopl	(%rax,%rax)

0000000100006740 __ZNSt3__116allocator_traitsINS_9allocatorI7AccountEEE10deallocateERS3_PS2_m:
100006740: 55                          	pushq	%rbp
100006741: 48 89 e5                    	movq	%rsp, %rbp
100006744: 48 83 ec 20                 	subq	$32, %rsp
100006748: 48 89 7d f8                 	movq	%rdi, -8(%rbp)
10000674c: 48 89 75 f0                 	movq	%rsi, -16(%rbp)
100006750: 48 89 55 e8                 	movq	%rdx, -24(%rbp)
100006754: 48 8b 7d f8                 	movq	-8(%rbp), %rdi
100006758: 48 8b 75 f0                 	movq	-16(%rbp), %rsi
10000675c: 48 8b 55 e8                 	movq	-24(%rbp), %rdx
100006760: e8 1b 01 00 00              	callq	283 <__ZNSt3__19allocatorI7AccountE10deallocateEPS1_m>
100006765: 48 83 c4 20                 	addq	$32, %rsp
100006769: 5d                          	popq	%rbp
10000676a: c3                          	retq
10000676b: 0f 1f 44 00 00              	nopl	(%rax,%rax)

0000000100006770 __ZNSt3__113__vector_baseI7AccountNS_9allocatorIS1_EEE17__destruct_at_endEPS1_:
100006770: 55                          	pushq	%rbp
100006771: 48 89 e5                    	movq	%rsp, %rbp
100006774: 48 83 ec 40                 	subq	$64, %rsp
100006778: 48 89 7d f8                 	movq	%rdi, -8(%rbp)
10000677c: 48 89 75 f0                 	movq	%rsi, -16(%rbp)
100006780: 48 8b 45 f8                 	movq	-8(%rbp), %rax
100006784: 48 8b 48 08                 	movq	8(%rax), %rcx
100006788: 48 89 4d e8                 	movq	%rcx, -24(%rbp)
10000678c: 48 89 45 d0                 	movq	%rax, -48(%rbp)
100006790: 48 8b 45 f0                 	movq	-16(%rbp), %rax
100006794: 48 3b 45 e8                 	cmpq	-24(%rbp), %rax
100006798: 0f 84 47 00 00 00           	je	71 <__ZNSt3__113__vector_baseI7AccountNS_9allocatorIS1_EEE17__destruct_at_endEPS1_+0x75>
10000679e: 48 8b 7d d0                 	movq	-48(%rbp), %rdi
1000067a2: e8 49 f8 ff ff              	callq	-1975 <__ZNSt3__113__vector_baseI7AccountNS_9allocatorIS1_EEE7__allocEv>
1000067a7: 48 8b 4d e8                 	movq	-24(%rbp), %rcx
1000067ab: 48 83 c1 f0                 	addq	$-16, %rcx
1000067af: 48 89 4d e8                 	movq	%rcx, -24(%rbp)
1000067b3: 48 89 cf                    	movq	%rcx, %rdi
1000067b6: 48 89 45 c8                 	movq	%rax, -56(%rbp)
1000067ba: e8 e1 fc ff ff              	callq	-799 <__ZNSt3__1L12__to_addressI7AccountEEPT_S3_>
1000067bf: 48 8b 7d c8                 	movq	-56(%rbp), %rdi
1000067c3: 48 89 c6                    	movq	%rax, %rsi
1000067c6: e8 35 00 00 00              	callq	53 <__ZNSt3__116allocator_traitsINS_9allocatorI7AccountEEE7destroyIS2_EEvRS3_PT_>
1000067cb: e9 00 00 00 00              	jmp	0 <__ZNSt3__113__vector_baseI7AccountNS_9allocatorIS1_EEE17__destruct_at_endEPS1_+0x60>
1000067d0: e9 bb ff ff ff              	jmp	-69 <__ZNSt3__113__vector_baseI7AccountNS_9allocatorIS1_EEE17__destruct_at_endEPS1_+0x20>
1000067d5: 48 89 45 e0                 	movq	%rax, -32(%rbp)
1000067d9: 89 55 dc                    	movl	%edx, -36(%rbp)
1000067dc: 48 8b 7d e0                 	movq	-32(%rbp), %rdi
1000067e0: e8 29 12 00 00              	callq	4649 <dyld_stub_binder+0x100007a0e>
1000067e5: 48 8b 45 f0                 	movq	-16(%rbp), %rax
1000067e9: 48 8b 4d d0                 	movq	-48(%rbp), %rcx
1000067ed: 48 89 41 08                 	movq	%rax, 8(%rcx)
1000067f1: 48 83 c4 40                 	addq	$64, %rsp
1000067f5: 5d                          	popq	%rbp
1000067f6: c3                          	retq
1000067f7: 66 0f 1f 84 00 00 00 00 00  	nopw	(%rax,%rax)

0000000100006800 __ZNSt3__116allocator_traitsINS_9allocatorI7AccountEEE7destroyIS2_EEvRS3_PT_:
100006800: 55                          	pushq	%rbp
100006801: 48 89 e5                    	movq	%rsp, %rbp
100006804: 48 83 ec 20                 	subq	$32, %rsp
100006808: 48 89 7d f8                 	movq	%rdi, -8(%rbp)
10000680c: 48 89 75 f0                 	movq	%rsi, -16(%rbp)
100006810: 48 8b 7d f8                 	movq	-8(%rbp), %rdi
100006814: 48 8b 75 f0                 	movq	-16(%rbp), %rsi
100006818: e8 13 00 00 00              	callq	19 <__ZNSt3__116allocator_traitsINS_9allocatorI7AccountEEE9__destroyIS2_EEvNS_17integral_constantIbLb1EEERS3_PT_>
10000681d: 48 83 c4 20                 	addq	$32, %rsp
100006821: 5d                          	popq	%rbp
100006822: c3                          	retq
100006823: 66 2e 0f 1f 84 00 00 00 00 00       	nopw	%cs:(%rax,%rax)
10000682d: 0f 1f 00                    	nopl	(%rax)

0000000100006830 __ZNSt3__116allocator_traitsINS_9allocatorI7AccountEEE9__destroyIS2_EEvNS_17integral_constantIbLb1EEERS3_PT_:
100006830: 55                          	pushq	%rbp
100006831: 48 89 e5                    	movq	%rsp, %rbp
100006834: 48 83 ec 20                 	subq	$32, %rsp
100006838: 48 89 7d f0                 	movq	%rdi, -16(%rbp)
10000683c: 48 89 75 e8                 	movq	%rsi, -24(%rbp)
100006840: 48 8b 7d f0                 	movq	-16(%rbp), %rdi
100006844: 48 8b 75 e8                 	movq	-24(%rbp), %rsi
100006848: e8 13 00 00 00              	callq	19 <__ZNSt3__19allocatorI7AccountE7destroyEPS1_>
10000684d: 48 83 c4 20                 	addq	$32, %rsp
100006851: 5d                          	popq	%rbp
100006852: c3                          	retq
100006853: 66 2e 0f 1f 84 00 00 00 00 00       	nopw	%cs:(%rax,%rax)
10000685d: 0f 1f 00                    	nopl	(%rax)

0000000100006860 __ZNSt3__19allocatorI7AccountE7destroyEPS1_:
100006860: 55                          	pushq	%rbp
100006861: 48 89 e5                    	movq	%rsp, %rbp
100006864: 48 83 ec 10                 	subq	$16, %rsp
100006868: 48 89 7d f8                 	movq	%rdi, -8(%rbp)
10000686c: 48 89 75 f0                 	movq	%rsi, -16(%rbp)
100006870: 48 8b 7d f0                 	movq	-16(%rbp), %rdi
100006874: e8 37 d6 ff ff              	callq	-10697 <__ZN7AccountD1Ev>
100006879: 48 83 c4 10                 	addq	$16, %rsp
10000687d: 5d                          	popq	%rbp
10000687e: c3                          	retq
10000687f: 90                          	nop

0000000100006880 __ZNSt3__19allocatorI7AccountE10deallocateEPS1_m:
100006880: 55                          	pushq	%rbp
100006881: 48 89 e5                    	movq	%rsp, %rbp
100006884: 48 83 ec 30                 	subq	$48, %rsp
100006888: 48 89 7d f8                 	movq	%rdi, -8(%rbp)
10000688c: 48 89 75 f0                 	movq	%rsi, -16(%rbp)
100006890: 48 89 55 e8                 	movq	%rdx, -24(%rbp)
100006894: 48 8b 7d f0                 	movq	-16(%rbp), %rdi
100006898: 48 8b 45 e8                 	movq	-24(%rbp), %rax
10000689c: 48 c1 e0 04                 	shlq	$4, %rax
1000068a0: ba 04 00 00 00              	movl	$4, %edx
1000068a5: 48 89 c6                    	movq	%rax, %rsi
1000068a8: e8 23 00 00 00              	callq	35 <__ZNSt3__1L19__libcpp_deallocateEPvmm>
1000068ad: e9 00 00 00 00              	jmp	0 <__ZNSt3__19allocatorI7AccountE10deallocateEPS1_m+0x32>
1000068b2: 48 83 c4 30                 	addq	$48, %rsp
1000068b6: 5d                          	popq	%rbp
1000068b7: c3                          	retq
1000068b8: 48 89 45 e0                 	movq	%rax, -32(%rbp)
1000068bc: 89 55 dc                    	movl	%edx, -36(%rbp)
1000068bf: 48 8b 7d e0                 	movq	-32(%rbp), %rdi
1000068c3: e8 46 11 00 00              	callq	4422 <dyld_stub_binder+0x100007a0e>
1000068c8: 0f 1f 84 00 00 00 00 00     	nopl	(%rax,%rax)

00000001000068d0 __ZNSt3__1L19__libcpp_deallocateEPvmm:
1000068d0: 55                          	pushq	%rbp
1000068d1: 48 89 e5                    	movq	%rsp, %rbp
1000068d4: 48 83 ec 20                 	subq	$32, %rsp
1000068d8: 48 89 7d f8                 	movq	%rdi, -8(%rbp)
1000068dc: 48 89 75 f0                 	movq	%rsi, -16(%rbp)
1000068e0: 48 89 55 e8                 	movq	%rdx, -24(%rbp)
1000068e4: 48 8b 7d f8                 	movq	-8(%rbp), %rdi
1000068e8: 48 8b 75 f0                 	movq	-16(%rbp), %rsi
1000068ec: 48 8b 55 e8                 	movq	-24(%rbp), %rdx
1000068f0: e8 0b 00 00 00              	callq	11 <__ZNSt3__117_DeallocateCaller33__do_deallocate_handle_size_alignEPvmm>
1000068f5: 48 83 c4 20                 	addq	$32, %rsp
1000068f9: 5d                          	popq	%rbp
1000068fa: c3                          	retq
1000068fb: 0f 1f 44 00 00              	nopl	(%rax,%rax)

0000000100006900 __ZNSt3__117_DeallocateCaller33__do_deallocate_handle_size_alignEPvmm:
100006900: 55                          	pushq	%rbp
100006901: 48 89 e5                    	movq	%rsp, %rbp
100006904: 48 83 ec 20                 	subq	$32, %rsp
100006908: 48 89 7d f8                 	movq	%rdi, -8(%rbp)
10000690c: 48 89 75 f0                 	movq	%rsi, -16(%rbp)
100006910: 48 89 55 e8                 	movq	%rdx, -24(%rbp)
100006914: 48 8b 7d f8                 	movq	-8(%rbp), %rdi
100006918: 48 8b 75 f0                 	movq	-16(%rbp), %rsi
10000691c: e8 87 10 00 00              	callq	4231 <dyld_stub_binder+0x1000079a8>
100006921: 48 83 c4 20                 	addq	$32, %rsp
100006925: 5d                          	popq	%rbp
100006926: c3                          	retq
100006927: 66 0f 1f 84 00 00 00 00 00  	nopw	(%rax,%rax)

0000000100006930 __ZNSt3__117_DeallocateCaller27__do_deallocate_handle_sizeEPvm:
100006930: 55                          	pushq	%rbp
100006931: 48 89 e5                    	movq	%rsp, %rbp
100006934: 48 83 ec 10                 	subq	$16, %rsp
100006938: 48 89 7d f8                 	movq	%rdi, -8(%rbp)
10000693c: 48 89 75 f0                 	movq	%rsi, -16(%rbp)
100006940: 48 8b 7d f8                 	movq	-8(%rbp), %rdi
100006944: e8 65 10 00 00              	callq	4197 <dyld_stub_binder+0x1000079ae>
100006949: 48 83 c4 10                 	addq	$16, %rsp
10000694d: 5d                          	popq	%rbp
10000694e: c3                          	retq
10000694f: 90                          	nop

0000000100006950 __ZNSt3__117_DeallocateCaller9__do_callEPv:
100006950: 55                          	pushq	%rbp
100006951: 48 89 e5                    	movq	%rsp, %rbp
100006954: 48 83 ec 10                 	subq	$16, %rsp
100006958: 48 89 7d f8                 	movq	%rdi, -8(%rbp)
10000695c: 48 8b 7d f8                 	movq	-8(%rbp), %rdi
100006960: e8 91 10 00 00              	callq	4241 <dyld_stub_binder+0x1000079f6>
100006965: 48 83 c4 10                 	addq	$16, %rsp
100006969: 5d                          	popq	%rbp
10000696a: c3                          	retq
10000696b: 0f 1f 44 00 00              	nopl	(%rax,%rax)

0000000100006970 __ZNSt3__16vectorI7AccountNS_9allocatorIS1_EEED2Ev:
100006970: 55                          	pushq	%rbp
100006971: 48 89 e5                    	movq	%rsp, %rbp
100006974: 48 83 ec 10                 	subq	$16, %rsp
100006978: 48 89 7d f8                 	movq	%rdi, -8(%rbp)
10000697c: 48 8b 45 f8                 	movq	-8(%rbp), %rax
100006980: 48 89 c7                    	movq	%rax, %rdi
100006983: 48 89 45 f0                 	movq	%rax, -16(%rbp)
100006987: e8 14 00 00 00              	callq	20 <__ZNKSt3__16vectorI7AccountNS_9allocatorIS1_EEE17__annotate_deleteEv>
10000698c: 48 8b 45 f0                 	movq	-16(%rbp), %rax
100006990: 48 89 c7                    	movq	%rax, %rdi
100006993: e8 68 f3 ff ff              	callq	-3224 <__ZNSt3__113__vector_baseI7AccountNS_9allocatorIS1_EEED2Ev>
100006998: 48 83 c4 10                 	addq	$16, %rsp
10000699c: 5d                          	popq	%rbp
10000699d: c3                          	retq
10000699e: 66 90                       	nop

00000001000069a0 __ZNKSt3__16vectorI7AccountNS_9allocatorIS1_EEE17__annotate_deleteEv:
1000069a0: 55                          	pushq	%rbp
1000069a1: 48 89 e5                    	movq	%rsp, %rbp
1000069a4: 48 83 ec 50                 	subq	$80, %rsp
1000069a8: 48 89 7d f8                 	movq	%rdi, -8(%rbp)
1000069ac: 48 8b 45 f8                 	movq	-8(%rbp), %rax
1000069b0: 48 89 c7                    	movq	%rax, %rdi
1000069b3: 48 89 45 f0                 	movq	%rax, -16(%rbp)
1000069b7: e8 a4 fa ff ff              	callq	-1372 <__ZNKSt3__16vectorI7AccountNS_9allocatorIS1_EEE4dataEv>
1000069bc: 48 8b 7d f0                 	movq	-16(%rbp), %rdi
1000069c0: 48 89 45 e8                 	movq	%rax, -24(%rbp)
1000069c4: e8 97 fa ff ff              	callq	-1385 <__ZNKSt3__16vectorI7AccountNS_9allocatorIS1_EEE4dataEv>
1000069c9: 48 8b 7d f0                 	movq	-16(%rbp), %rdi
1000069cd: 48 89 45 e0                 	movq	%rax, -32(%rbp)
1000069d1: e8 aa fa ff ff              	callq	-1366 <__ZNKSt3__16vectorI7AccountNS_9allocatorIS1_EEE8capacityEv>
1000069d6: 48 c1 e0 04                 	shlq	$4, %rax
1000069da: 48 8b 4d e0                 	movq	-32(%rbp), %rcx
1000069de: 48 01 c1                    	addq	%rax, %rcx
1000069e1: 48 8b 7d f0                 	movq	-16(%rbp), %rdi
1000069e5: 48 89 4d d8                 	movq	%rcx, -40(%rbp)
1000069e9: e8 72 fa ff ff              	callq	-1422 <__ZNKSt3__16vectorI7AccountNS_9allocatorIS1_EEE4dataEv>
1000069ee: 48 8b 7d f0                 	movq	-16(%rbp), %rdi
1000069f2: 48 89 45 d0                 	movq	%rax, -48(%rbp)
1000069f6: e8 65 00 00 00              	callq	101 <__ZNKSt3__16vectorI7AccountNS_9allocatorIS1_EEE4sizeEv>
1000069fb: 48 c1 e0 04                 	shlq	$4, %rax
1000069ff: 48 8b 4d d0                 	movq	-48(%rbp), %rcx
100006a03: 48 01 c1                    	addq	%rax, %rcx
100006a06: 48 8b 7d f0                 	movq	-16(%rbp), %rdi
100006a0a: 48 89 4d c8                 	movq	%rcx, -56(%rbp)
100006a0e: e8 4d fa ff ff              	callq	-1459 <__ZNKSt3__16vectorI7AccountNS_9allocatorIS1_EEE4dataEv>
100006a13: 48 8b 7d f0                 	movq	-16(%rbp), %rdi
100006a17: 48 89 45 c0                 	movq	%rax, -64(%rbp)
100006a1b: e8 60 fa ff ff              	callq	-1440 <__ZNKSt3__16vectorI7AccountNS_9allocatorIS1_EEE8capacityEv>
100006a20: 48 c1 e0 04                 	shlq	$4, %rax
100006a24: 48 8b 4d c0                 	movq	-64(%rbp), %rcx
100006a28: 48 01 c1                    	addq	%rax, %rcx
100006a2b: 48 8b 7d f0                 	movq	-16(%rbp), %rdi
100006a2f: 48 8b 75 e8                 	movq	-24(%rbp), %rsi
100006a33: 48 8b 55 d8                 	movq	-40(%rbp), %rdx
100006a37: 48 8b 45 c8                 	movq	-56(%rbp), %rax
100006a3b: 48 89 4d b8                 	movq	%rcx, -72(%rbp)
100006a3f: 48 89 c1                    	movq	%rax, %rcx
100006a42: 4c 8b 45 b8                 	movq	-72(%rbp), %r8
100006a46: e8 f5 f9 ff ff              	callq	-1547 <__ZNKSt3__16vectorI7AccountNS_9allocatorIS1_EEE31__annotate_contiguous_containerEPKvS6_S6_S6_>
100006a4b: 48 83 c4 50                 	addq	$80, %rsp
100006a4f: 5d                          	popq	%rbp
100006a50: c3                          	retq
100006a51: 66 2e 0f 1f 84 00 00 00 00 00       	nopw	%cs:(%rax,%rax)
100006a5b: 0f 1f 44 00 00              	nopl	(%rax,%rax)

0000000100006a60 __ZNKSt3__16vectorI7AccountNS_9allocatorIS1_EEE4sizeEv:
100006a60: 55                          	pushq	%rbp
100006a61: 48 89 e5                    	movq	%rsp, %rbp
100006a64: 48 89 7d f8                 	movq	%rdi, -8(%rbp)
100006a68: 48 8b 45 f8                 	movq	-8(%rbp), %rax
100006a6c: 48 8b 48 08                 	movq	8(%rax), %rcx
100006a70: 48 8b 00                    	movq	(%rax), %rax
100006a73: 48 29 c1                    	subq	%rax, %rcx
100006a76: 48 c1 f9 04                 	sarq	$4, %rcx
100006a7a: 48 89 c8                    	movq	%rcx, %rax
100006a7d: 5d                          	popq	%rbp
100006a7e: c3                          	retq
100006a7f: 90                          	nop

0000000100006a80 __ZNSt3__16vectorI7AccountNS_9allocatorIS1_EEE11__make_iterEPS1_:
100006a80: 55                          	pushq	%rbp
100006a81: 48 89 e5                    	movq	%rsp, %rbp
100006a84: 48 83 ec 20                 	subq	$32, %rsp
100006a88: 48 89 7d f0                 	movq	%rdi, -16(%rbp)
100006a8c: 48 89 75 e8                 	movq	%rsi, -24(%rbp)
100006a90: 48 8b 75 e8                 	movq	-24(%rbp), %rsi
100006a94: 48 8d 7d f8                 	leaq	-8(%rbp), %rdi
100006a98: e8 13 00 00 00              	callq	19 <__ZNSt3__111__wrap_iterIP7AccountEC1ES2_>
100006a9d: 48 8b 45 f8                 	movq	-8(%rbp), %rax
100006aa1: 48 83 c4 20                 	addq	$32, %rsp
100006aa5: 5d                          	popq	%rbp
100006aa6: c3                          	retq
100006aa7: 66 0f 1f 84 00 00 00 00 00  	nopw	(%rax,%rax)

0000000100006ab0 __ZNSt3__111__wrap_iterIP7AccountEC1ES2_:
100006ab0: 55                          	pushq	%rbp
100006ab1: 48 89 e5                    	movq	%rsp, %rbp
100006ab4: 48 83 ec 10                 	subq	$16, %rsp
100006ab8: 48 89 7d f8                 	movq	%rdi, -8(%rbp)
100006abc: 48 89 75 f0                 	movq	%rsi, -16(%rbp)
100006ac0: 48 8b 7d f8                 	movq	-8(%rbp), %rdi
100006ac4: 48 8b 75 f0                 	movq	-16(%rbp), %rsi
100006ac8: e8 13 00 00 00              	callq	19 <__ZNSt3__111__wrap_iterIP7AccountEC2ES2_>
100006acd: 48 83 c4 10                 	addq	$16, %rsp
100006ad1: 5d                          	popq	%rbp
100006ad2: c3                          	retq
100006ad3: 66 2e 0f 1f 84 00 00 00 00 00       	nopw	%cs:(%rax,%rax)
100006add: 0f 1f 00                    	nopl	(%rax)

0000000100006ae0 __ZNSt3__111__wrap_iterIP7AccountEC2ES2_:
100006ae0: 55                          	pushq	%rbp
100006ae1: 48 89 e5                    	movq	%rsp, %rbp
100006ae4: 48 89 7d f8                 	movq	%rdi, -8(%rbp)
100006ae8: 48 89 75 f0                 	movq	%rsi, -16(%rbp)
100006aec: 48 8b 45 f8                 	movq	-8(%rbp), %rax
100006af0: 48 8b 4d f0                 	movq	-16(%rbp), %rcx
100006af4: 48 89 08                    	movq	%rcx, (%rax)
100006af7: 5d                          	popq	%rbp
100006af8: c3                          	retq
100006af9: 0f 1f 80 00 00 00 00        	nopl	(%rax)

0000000100006b00 __ZNSt3__16vectorIiNS_9allocatorIiEEEC2IPKiEET_NS_9enable_ifIXaasr27__is_cpp17_forward_iteratorIS7_EE5valuesr16is_constructibleIiNS_15iterator_traitsIS7_E9referenceEEE5valueES7_E4typeE:
100006b00: 55                          	pushq	%rbp
100006b01: 48 89 e5                    	movq	%rsp, %rbp
100006b04: 48 83 ec 50                 	subq	$80, %rsp
100006b08: 48 89 7d f8                 	movq	%rdi, -8(%rbp)
100006b0c: 48 89 75 f0                 	movq	%rsi, -16(%rbp)
100006b10: 48 89 55 e8                 	movq	%rdx, -24(%rbp)
100006b14: 48 8b 45 f8                 	movq	-8(%rbp), %rax
100006b18: 48 89 c7                    	movq	%rax, %rdi
100006b1b: 48 89 45 c8                 	movq	%rax, -56(%rbp)
100006b1f: e8 9c 00 00 00              	callq	156 <__ZNSt3__113__vector_baseIiNS_9allocatorIiEEEC2Ev>
100006b24: 48 8b 7d f0                 	movq	-16(%rbp), %rdi
100006b28: 48 8b 75 e8                 	movq	-24(%rbp), %rsi
100006b2c: e8 5f f0 ff ff              	callq	-4001 <__ZNSt3__1L8distanceIPKiEENS_15iterator_traitsIT_E15difference_typeES4_S4_>
100006b31: 48 89 45 c0                 	movq	%rax, -64(%rbp)
100006b35: e9 00 00 00 00              	jmp	0 <__ZNSt3__16vectorIiNS_9allocatorIiEEEC2IPKiEET_NS_9enable_ifIXaasr27__is_cpp17_forward_iteratorIS7_EE5valuesr16is_constructibleIiNS_15iterator_traitsIS7_E9referenceEEE5valueES7_E4typeE+0x3a>
100006b3a: 48 8b 45 c0                 	movq	-64(%rbp), %rax
100006b3e: 48 89 45 e0                 	movq	%rax, -32(%rbp)
100006b42: 48 83 7d e0 00              	cmpq	$0, -32(%rbp)
100006b47: 0f 86 46 00 00 00           	jbe	70 <__ZNSt3__16vectorIiNS_9allocatorIiEEEC2IPKiEET_NS_9enable_ifIXaasr27__is_cpp17_forward_iteratorIS7_EE5valuesr16is_constructibleIiNS_15iterator_traitsIS7_E9referenceEEE5valueES7_E4typeE+0x93>
100006b4d: 48 8b 75 e0                 	movq	-32(%rbp), %rsi
100006b51: 48 8b 7d c8                 	movq	-56(%rbp), %rdi
100006b55: e8 72 0e 00 00              	callq	3698 <dyld_stub_binder+0x1000079cc>
100006b5a: e9 00 00 00 00              	jmp	0 <__ZNSt3__16vectorIiNS_9allocatorIiEEEC2IPKiEET_NS_9enable_ifIXaasr27__is_cpp17_forward_iteratorIS7_EE5valuesr16is_constructibleIiNS_15iterator_traitsIS7_E9referenceEEE5valueES7_E4typeE+0x5f>
100006b5f: 48 8b 75 f0                 	movq	-16(%rbp), %rsi
100006b63: 48 8b 55 e8                 	movq	-24(%rbp), %rdx
100006b67: 48 8b 4d e0                 	movq	-32(%rbp), %rcx
100006b6b: 48 8b 7d c8                 	movq	-56(%rbp), %rdi
100006b6f: e8 5e 0e 00 00              	callq	3678 <dyld_stub_binder+0x1000079d2>
100006b74: e9 00 00 00 00              	jmp	0 <__ZNSt3__16vectorIiNS_9allocatorIiEEEC2IPKiEET_NS_9enable_ifIXaasr27__is_cpp17_forward_iteratorIS7_EE5valuesr16is_constructibleIiNS_15iterator_traitsIS7_E9referenceEEE5valueES7_E4typeE+0x79>
100006b79: e9 15 00 00 00              	jmp	21 <__ZNSt3__16vectorIiNS_9allocatorIiEEEC2IPKiEET_NS_9enable_ifIXaasr27__is_cpp17_forward_iteratorIS7_EE5valuesr16is_constructibleIiNS_15iterator_traitsIS7_E9referenceEEE5valueES7_E4typeE+0x93>
100006b7e: 48 89 45 d8                 	movq	%rax, -40(%rbp)
100006b82: 89 55 d4                    	movl	%edx, -44(%rbp)
100006b85: 48 8b 7d c8                 	movq	-56(%rbp), %rdi
100006b89: e8 f2 01 00 00              	callq	498 <__ZNSt3__113__vector_baseIiNS_9allocatorIiEEED2Ev>
100006b8e: e9 06 00 00 00              	jmp	6 <__ZNSt3__16vectorIiNS_9allocatorIiEEEC2IPKiEET_NS_9enable_ifIXaasr27__is_cpp17_forward_iteratorIS7_EE5valuesr16is_constructibleIiNS_15iterator_traitsIS7_E9referenceEEE5valueES7_E4typeE+0x99>
100006b93: 48 83 c4 50                 	addq	$80, %rsp
100006b97: 5d                          	popq	%rbp
100006b98: c3                          	retq
100006b99: e9 00 00 00 00              	jmp	0 <__ZNSt3__16vectorIiNS_9allocatorIiEEEC2IPKiEET_NS_9enable_ifIXaasr27__is_cpp17_forward_iteratorIS7_EE5valuesr16is_constructibleIiNS_15iterator_traitsIS7_E9referenceEEE5valueES7_E4typeE+0x9e>
100006b9e: 48 8b 7d d8                 	movq	-40(%rbp), %rdi
100006ba2: e8 9b 0d 00 00              	callq	3483 <dyld_stub_binder+0x100007942>
100006ba7: 0f 0b                       	ud2
100006ba9: 48 89 c7                    	movq	%rax, %rdi
100006bac: 48 89 55 b8                 	movq	%rdx, -72(%rbp)
100006bb0: e8 bb de ff ff              	callq	-8517 <___clang_call_terminate>
100006bb5: 66 2e 0f 1f 84 00 00 00 00 00       	nopw	%cs:(%rax,%rax)
100006bbf: 90                          	nop

0000000100006bc0 __ZNSt3__113__vector_baseIiNS_9allocatorIiEEEC2Ev:
100006bc0: 55                          	pushq	%rbp
100006bc1: 48 89 e5                    	movq	%rsp, %rbp
100006bc4: 48 83 ec 40                 	subq	$64, %rsp
100006bc8: 48 89 7d f8                 	movq	%rdi, -8(%rbp)
100006bcc: 48 8b 45 f8                 	movq	-8(%rbp), %rax
100006bd0: 48 89 c1                    	movq	%rax, %rcx
100006bd3: 48 89 cf                    	movq	%rcx, %rdi
100006bd6: 48 89 45 d0                 	movq	%rax, -48(%rbp)
100006bda: e8 a1 f1 ff ff              	callq	-3679 <__ZNSt3__120__vector_base_commonILb1EEC2Ev>
100006bdf: e8 ac f1 ff ff              	callq	-3668 <__ZNSt3__1L15__get_nullptr_tEv>
100006be4: 48 89 45 f0                 	movq	%rax, -16(%rbp)
100006be8: 48 8d 7d f0                 	leaq	-16(%rbp), %rdi
100006bec: e8 0f 02 00 00              	callq	527 <__ZNKSt3__19nullptr_tcvPT_IiEEv>
100006bf1: 48 8b 4d d0                 	movq	-48(%rbp), %rcx
100006bf5: 48 89 01                    	movq	%rax, (%rcx)
100006bf8: e8 93 f1 ff ff              	callq	-3693 <__ZNSt3__1L15__get_nullptr_tEv>
100006bfd: 48 89 45 e8                 	movq	%rax, -24(%rbp)
100006c01: 48 8d 7d e8                 	leaq	-24(%rbp), %rdi
100006c05: e8 f6 01 00 00              	callq	502 <__ZNKSt3__19nullptr_tcvPT_IiEEv>
100006c0a: 48 8b 4d d0                 	movq	-48(%rbp), %rcx
100006c0e: 48 89 41 08                 	movq	%rax, 8(%rcx)
100006c12: 48 81 c1 10 00 00 00        	addq	$16, %rcx
100006c19: 48 89 4d c8                 	movq	%rcx, -56(%rbp)
100006c1d: e8 6e f1 ff ff              	callq	-3730 <__ZNSt3__1L15__get_nullptr_tEv>
100006c22: 48 89 45 e0                 	movq	%rax, -32(%rbp)
100006c26: 48 8b 7d c8                 	movq	-56(%rbp), %rdi
100006c2a: 48 8d 75 e0                 	leaq	-32(%rbp), %rsi
100006c2e: 48 8d 55 d8                 	leaq	-40(%rbp), %rdx
100006c32: e8 d9 01 00 00              	callq	473 <__ZNSt3__117__compressed_pairIPiNS_9allocatorIiEEEC1INS_9nullptr_tENS_18__default_init_tagEEEOT_OT0_>
100006c37: 48 83 c4 40                 	addq	$64, %rsp
100006c3b: 5d                          	popq	%rbp
100006c3c: c3                          	retq
100006c3d: 0f 1f 00                    	nopl	(%rax)

0000000100006c40 __ZNSt3__16vectorIiNS_9allocatorIiEEE11__vallocateEm:
100006c40: 55                          	pushq	%rbp
100006c41: 48 89 e5                    	movq	%rsp, %rbp
100006c44: 48 83 ec 30                 	subq	$48, %rsp
100006c48: 48 89 7d f8                 	movq	%rdi, -8(%rbp)
100006c4c: 48 89 75 f0                 	movq	%rsi, -16(%rbp)
100006c50: 48 8b 45 f8                 	movq	-8(%rbp), %rax
100006c54: 48 8b 4d f0                 	movq	-16(%rbp), %rcx
100006c58: 48 89 c7                    	movq	%rax, %rdi
100006c5b: 48 89 45 e8                 	movq	%rax, -24(%rbp)
100006c5f: 48 89 4d e0                 	movq	%rcx, -32(%rbp)
100006c63: e8 f2 0c 00 00              	callq	3314 <dyld_stub_binder+0x10000795a>
100006c68: 48 8b 4d e0                 	movq	-32(%rbp), %rcx
100006c6c: 48 39 c1                    	cmpq	%rax, %rcx
100006c6f: 0f 86 09 00 00 00           	jbe	9 <__ZNSt3__16vectorIiNS_9allocatorIiEEE11__vallocateEm+0x3e>
100006c75: 48 8b 7d e8                 	movq	-24(%rbp), %rdi
100006c79: e8 ca 0c 00 00              	callq	3274 <dyld_stub_binder+0x100007948>
100006c7e: 48 8b 45 e8                 	movq	-24(%rbp), %rax
100006c82: 48 89 c7                    	movq	%rax, %rdi
100006c85: e8 16 03 00 00              	callq	790 <__ZNSt3__113__vector_baseIiNS_9allocatorIiEEE7__allocEv>
100006c8a: 48 8b 75 f0                 	movq	-16(%rbp), %rsi
100006c8e: 48 89 c7                    	movq	%rax, %rdi
100006c91: e8 da 02 00 00              	callq	730 <__ZNSt3__116allocator_traitsINS_9allocatorIiEEE8allocateERS2_m>
100006c96: 48 8b 4d e8                 	movq	-24(%rbp), %rcx
100006c9a: 48 89 41 08                 	movq	%rax, 8(%rcx)
100006c9e: 48 89 01                    	movq	%rax, (%rcx)
100006ca1: 48 8b 01                    	movq	(%rcx), %rax
100006ca4: 48 8b 55 f0                 	movq	-16(%rbp), %rdx
100006ca8: 48 c1 e2 02                 	shlq	$2, %rdx
100006cac: 48 01 d0                    	addq	%rdx, %rax
100006caf: 48 89 cf                    	movq	%rcx, %rdi
100006cb2: 48 89 45 d8                 	movq	%rax, -40(%rbp)
100006cb6: e8 15 03 00 00              	callq	789 <__ZNSt3__113__vector_baseIiNS_9allocatorIiEEE9__end_capEv>
100006cbb: 45 31 c0                    	xorl	%r8d, %r8d
100006cbe: 44 89 c6                    	movl	%r8d, %esi
100006cc1: 48 8b 4d d8                 	movq	-40(%rbp), %rcx
100006cc5: 48 89 08                    	movq	%rcx, (%rax)
100006cc8: 48 8b 7d e8                 	movq	-24(%rbp), %rdi
100006ccc: e8 2f 03 00 00              	callq	815 <__ZNKSt3__16vectorIiNS_9allocatorIiEEE14__annotate_newEm>
100006cd1: 48 83 c4 30                 	addq	$48, %rsp
100006cd5: 5d                          	popq	%rbp
100006cd6: c3                          	retq
100006cd7: 66 0f 1f 84 00 00 00 00 00  	nopw	(%rax,%rax)

0000000100006ce0 __ZNSt3__16vectorIiNS_9allocatorIiEEE18__construct_at_endIPKiEENS_9enable_ifIXsr27__is_cpp17_forward_iteratorIT_EE5valueEvE4typeES8_S8_m:
100006ce0: 55                          	pushq	%rbp
100006ce1: 48 89 e5                    	movq	%rsp, %rbp
100006ce4: 48 83 ec 60                 	subq	$96, %rsp
100006ce8: 48 89 7d f8                 	movq	%rdi, -8(%rbp)
100006cec: 48 89 75 f0                 	movq	%rsi, -16(%rbp)
100006cf0: 48 89 55 e8                 	movq	%rdx, -24(%rbp)
100006cf4: 48 89 4d e0                 	movq	%rcx, -32(%rbp)
100006cf8: 48 8b 45 f8                 	movq	-8(%rbp), %rax
100006cfc: 48 8b 55 e0                 	movq	-32(%rbp), %rdx
100006d00: 48 8d 7d c8                 	leaq	-56(%rbp), %rdi
100006d04: 48 89 c6                    	movq	%rax, %rsi
100006d07: 48 89 45 b0                 	movq	%rax, -80(%rbp)
100006d0b: e8 20 06 00 00              	callq	1568 <__ZNSt3__16vectorIiNS_9allocatorIiEEE21_ConstructTransactionC1ERS3_m>
100006d10: 48 8b 7d b0                 	movq	-80(%rbp), %rdi
100006d14: e8 87 02 00 00              	callq	647 <__ZNSt3__113__vector_baseIiNS_9allocatorIiEEE7__allocEv>
100006d19: 48 8b 75 f0                 	movq	-16(%rbp), %rsi
100006d1d: 48 8b 55 e8                 	movq	-24(%rbp), %rdx
100006d21: 48 8d 4d d0                 	leaq	-48(%rbp), %rcx
100006d25: 48 89 c7                    	movq	%rax, %rdi
100006d28: e8 33 06 00 00              	callq	1587 <__ZNSt3__116allocator_traitsINS_9allocatorIiEEE25__construct_range_forwardIKiiiiEENS_9enable_ifIXaaaasr31is_trivially_copy_constructibleIT0_EE5valuesr7is_sameIT1_T2_EE5valueooL_ZNS_17integral_constantIbLb1EE5valueEEntsr15__has_constructIS2_PS7_RT_EE5valueEvE4typeERS2_PSD_SI_RSC_>
100006d2d: e9 00 00 00 00              	jmp	0 <__ZNSt3__16vectorIiNS_9allocatorIiEEE18__construct_at_endIPKiEENS_9enable_ifIXsr27__is_cpp17_forward_iteratorIT_EE5valueEvE4typeES8_S8_m+0x52>
100006d32: 48 8d 7d c8                 	leaq	-56(%rbp), %rdi
100006d36: e8 c5 f8 ff ff              	callq	-1851 <__ZNSt3__16vectorIiNS_9allocatorIiEEE21_ConstructTransactionD1Ev>
100006d3b: 48 83 c4 60                 	addq	$96, %rsp
100006d3f: 5d                          	popq	%rbp
100006d40: c3                          	retq
100006d41: 48 89 45 c0                 	movq	%rax, -64(%rbp)
100006d45: 89 55 bc                    	movl	%edx, -68(%rbp)
100006d48: 48 8d 7d c8                 	leaq	-56(%rbp), %rdi
100006d4c: e8 af f8 ff ff              	callq	-1873 <__ZNSt3__16vectorIiNS_9allocatorIiEEE21_ConstructTransactionD1Ev>
100006d51: e9 00 00 00 00              	jmp	0 <__ZNSt3__16vectorIiNS_9allocatorIiEEE18__construct_at_endIPKiEENS_9enable_ifIXsr27__is_cpp17_forward_iteratorIT_EE5valueEvE4typeES8_S8_m+0x76>
100006d56: e9 00 00 00 00              	jmp	0 <__ZNSt3__16vectorIiNS_9allocatorIiEEE18__construct_at_endIPKiEENS_9enable_ifIXsr27__is_cpp17_forward_iteratorIT_EE5valueEvE4typeES8_S8_m+0x7b>
100006d5b: 48 8b 7d c0                 	movq	-64(%rbp), %rdi
100006d5f: e8 de 0b 00 00              	callq	3038 <dyld_stub_binder+0x100007942>
100006d64: 0f 0b                       	ud2
100006d66: 48 89 c7                    	movq	%rax, %rdi
100006d69: 48 89 55 a8                 	movq	%rdx, -88(%rbp)
100006d6d: e8 fe dc ff ff              	callq	-8962 <___clang_call_terminate>
100006d72: 66 2e 0f 1f 84 00 00 00 00 00       	nopw	%cs:(%rax,%rax)
100006d7c: 0f 1f 40 00                 	nopl	(%rax)

0000000100006d80 __ZNSt3__113__vector_baseIiNS_9allocatorIiEEED2Ev:
100006d80: 55                          	pushq	%rbp
100006d81: 48 89 e5                    	movq	%rsp, %rbp
100006d84: 48 83 ec 30                 	subq	$48, %rsp
100006d88: 48 89 7d f8                 	movq	%rdi, -8(%rbp)
100006d8c: 48 8b 45 f8                 	movq	-8(%rbp), %rax
100006d90: 48 8b 08                    	movq	(%rax), %rcx
100006d93: 48 89 45 e8                 	movq	%rax, -24(%rbp)
100006d97: 48 89 4d e0                 	movq	%rcx, -32(%rbp)
100006d9b: e8 f0 ef ff ff              	callq	-4112 <__ZNSt3__1L15__get_nullptr_tEv>
100006da0: 48 89 45 f0                 	movq	%rax, -16(%rbp)
100006da4: 48 8d 7d f0                 	leaq	-16(%rbp), %rdi
100006da8: e8 53 00 00 00              	callq	83 <__ZNKSt3__19nullptr_tcvPT_IiEEv>
100006dad: 48 8b 4d e0                 	movq	-32(%rbp), %rcx
100006db1: 48 39 c1                    	cmpq	%rax, %rcx
100006db4: 0f 84 39 00 00 00           	je	57 <__ZNSt3__113__vector_baseIiNS_9allocatorIiEEED2Ev+0x73>
100006dba: 48 8b 7d e8                 	movq	-24(%rbp), %rdi
100006dbe: e8 4d 06 00 00              	callq	1613 <__ZNSt3__113__vector_baseIiNS_9allocatorIiEEE5clearEv>
100006dc3: 48 8b 7d e8                 	movq	-24(%rbp), %rdi
100006dc7: e8 d4 01 00 00              	callq	468 <__ZNSt3__113__vector_baseIiNS_9allocatorIiEEE7__allocEv>
100006dcc: 48 8b 4d e8                 	movq	-24(%rbp), %rcx
100006dd0: 48 8b 31                    	movq	(%rcx), %rsi
100006dd3: 48 89 cf                    	movq	%rcx, %rdi
100006dd6: 48 89 45 d8                 	movq	%rax, -40(%rbp)
100006dda: 48 89 75 d0                 	movq	%rsi, -48(%rbp)
100006dde: e8 ad 04 00 00              	callq	1197 <__ZNKSt3__113__vector_baseIiNS_9allocatorIiEEE8capacityEv>
100006de3: 48 8b 7d d8                 	movq	-40(%rbp), %rdi
100006de7: 48 8b 75 d0                 	movq	-48(%rbp), %rsi
100006deb: 48 89 c2                    	movq	%rax, %rdx
100006dee: e8 4d 06 00 00              	callq	1613 <__ZNSt3__116allocator_traitsINS_9allocatorIiEEE10deallocateERS2_Pim>
100006df3: 48 83 c4 30                 	addq	$48, %rsp
100006df7: 5d                          	popq	%rbp
100006df8: c3                          	retq
100006df9: 0f 1f 80 00 00 00 00        	nopl	(%rax)

0000000100006e00 __ZNKSt3__19nullptr_tcvPT_IiEEv:
100006e00: 55                          	pushq	%rbp
100006e01: 48 89 e5                    	movq	%rsp, %rbp
100006e04: 31 c0                       	xorl	%eax, %eax
100006e06: 48 89 7d f8                 	movq	%rdi, -8(%rbp)
100006e0a: 5d                          	popq	%rbp
100006e0b: c3                          	retq
100006e0c: 0f 1f 40 00                 	nopl	(%rax)

0000000100006e10 __ZNSt3__117__compressed_pairIPiNS_9allocatorIiEEEC1INS_9nullptr_tENS_18__default_init_tagEEEOT_OT0_:
100006e10: 55                          	pushq	%rbp
100006e11: 48 89 e5                    	movq	%rsp, %rbp
100006e14: 48 83 ec 20                 	subq	$32, %rsp
100006e18: 48 89 7d f8                 	movq	%rdi, -8(%rbp)
100006e1c: 48 89 75 f0                 	movq	%rsi, -16(%rbp)
100006e20: 48 89 55 e8                 	movq	%rdx, -24(%rbp)
100006e24: 48 8b 7d f8                 	movq	-8(%rbp), %rdi
100006e28: 48 8b 75 f0                 	movq	-16(%rbp), %rsi
100006e2c: 48 8b 55 e8                 	movq	-24(%rbp), %rdx
100006e30: e8 0b 00 00 00              	callq	11 <__ZNSt3__117__compressed_pairIPiNS_9allocatorIiEEEC2INS_9nullptr_tENS_18__default_init_tagEEEOT_OT0_>
100006e35: 48 83 c4 20                 	addq	$32, %rsp
100006e39: 5d                          	popq	%rbp
100006e3a: c3                          	retq
100006e3b: 0f 1f 44 00 00              	nopl	(%rax,%rax)

0000000100006e40 __ZNSt3__117__compressed_pairIPiNS_9allocatorIiEEEC2INS_9nullptr_tENS_18__default_init_tagEEEOT_OT0_:
100006e40: 55                          	pushq	%rbp
100006e41: 48 89 e5                    	movq	%rsp, %rbp
100006e44: 48 83 ec 40                 	subq	$64, %rsp
100006e48: 48 89 7d f8                 	movq	%rdi, -8(%rbp)
100006e4c: 48 89 75 f0                 	movq	%rsi, -16(%rbp)
100006e50: 48 89 55 e8                 	movq	%rdx, -24(%rbp)
100006e54: 48 8b 45 f8                 	movq	-8(%rbp), %rax
100006e58: 48 89 c1                    	movq	%rax, %rcx
100006e5b: 48 8b 7d f0                 	movq	-16(%rbp), %rdi
100006e5f: 48 89 45 d8                 	movq	%rax, -40(%rbp)
100006e63: 48 89 4d d0                 	movq	%rcx, -48(%rbp)
100006e67: e8 44 f0 ff ff              	callq	-4028 <__ZNSt3__1L7forwardINS_9nullptr_tEEEOT_RNS_16remove_referenceIS2_E4typeE>
100006e6c: 48 8b 7d d0                 	movq	-48(%rbp), %rdi
100006e70: 48 89 c6                    	movq	%rax, %rsi
100006e73: e8 28 00 00 00              	callq	40 <__ZNSt3__122__compressed_pair_elemIPiLi0ELb0EEC2INS_9nullptr_tEvEEOT_>
100006e78: 48 8b 45 d8                 	movq	-40(%rbp), %rax
100006e7c: 48 8b 7d e8                 	movq	-24(%rbp), %rdi
100006e80: 48 89 45 c8                 	movq	%rax, -56(%rbp)
100006e84: e8 77 f0 ff ff              	callq	-3977 <__ZNSt3__1L7forwardINS_18__default_init_tagEEEOT_RNS_16remove_referenceIS2_E4typeE>
100006e89: 48 8b 7d c8                 	movq	-56(%rbp), %rdi
100006e8d: 48 89 45 c0                 	movq	%rax, -64(%rbp)
100006e91: e8 4a 00 00 00              	callq	74 <__ZNSt3__122__compressed_pair_elemINS_9allocatorIiEELi1ELb1EEC2ENS_18__default_init_tagE>
100006e96: 48 83 c4 40                 	addq	$64, %rsp
100006e9a: 5d                          	popq	%rbp
100006e9b: c3                          	retq
100006e9c: 0f 1f 40 00                 	nopl	(%rax)

0000000100006ea0 __ZNSt3__122__compressed_pair_elemIPiLi0ELb0EEC2INS_9nullptr_tEvEEOT_:
100006ea0: 55                          	pushq	%rbp
100006ea1: 48 89 e5                    	movq	%rsp, %rbp
100006ea4: 48 83 ec 20                 	subq	$32, %rsp
100006ea8: 48 89 7d f8                 	movq	%rdi, -8(%rbp)
100006eac: 48 89 75 f0                 	movq	%rsi, -16(%rbp)
100006eb0: 48 8b 45 f8                 	movq	-8(%rbp), %rax
100006eb4: 48 8b 7d f0                 	movq	-16(%rbp), %rdi
100006eb8: 48 89 45 e8                 	movq	%rax, -24(%rbp)
100006ebc: e8 ef ef ff ff              	callq	-4113 <__ZNSt3__1L7forwardINS_9nullptr_tEEEOT_RNS_16remove_referenceIS2_E4typeE>
100006ec1: 48 89 c7                    	movq	%rax, %rdi
100006ec4: e8 37 ff ff ff              	callq	-201 <__ZNKSt3__19nullptr_tcvPT_IiEEv>
100006ec9: 48 8b 4d e8                 	movq	-24(%rbp), %rcx
100006ecd: 48 89 01                    	movq	%rax, (%rcx)
100006ed0: 48 83 c4 20                 	addq	$32, %rsp
100006ed4: 5d                          	popq	%rbp
100006ed5: c3                          	retq
100006ed6: 66 2e 0f 1f 84 00 00 00 00 00       	nopw	%cs:(%rax,%rax)

0000000100006ee0 __ZNSt3__122__compressed_pair_elemINS_9allocatorIiEELi1ELb1EEC2ENS_18__default_init_tagE:
100006ee0: 55                          	pushq	%rbp
100006ee1: 48 89 e5                    	movq	%rsp, %rbp
100006ee4: 48 83 ec 10                 	subq	$16, %rsp
100006ee8: 48 89 7d f0                 	movq	%rdi, -16(%rbp)
100006eec: 48 8b 45 f0                 	movq	-16(%rbp), %rax
100006ef0: 48 89 c7                    	movq	%rax, %rdi
100006ef3: e8 08 00 00 00              	callq	8 <__ZNSt3__19allocatorIiEC2Ev>
100006ef8: 48 83 c4 10                 	addq	$16, %rsp
100006efc: 5d                          	popq	%rbp
100006efd: c3                          	retq
100006efe: 66 90                       	nop

0000000100006f00 __ZNSt3__19allocatorIiEC2Ev:
100006f00: 55                          	pushq	%rbp
100006f01: 48 89 e5                    	movq	%rsp, %rbp
100006f04: 48 89 7d f8                 	movq	%rdi, -8(%rbp)
100006f08: 5d                          	popq	%rbp
100006f09: c3                          	retq
100006f0a: 66 0f 1f 44 00 00           	nopw	(%rax,%rax)

0000000100006f10 __ZNKSt3__16vectorIiNS_9allocatorIiEEE8max_sizeEv:
100006f10: 55                          	pushq	%rbp
100006f11: 48 89 e5                    	movq	%rsp, %rbp
100006f14: 48 83 ec 30                 	subq	$48, %rsp
100006f18: 48 89 7d f8                 	movq	%rdi, -8(%rbp)
100006f1c: 48 8b 7d f8                 	movq	-8(%rbp), %rdi
100006f20: e8 9b 01 00 00              	callq	411 <__ZNKSt3__113__vector_baseIiNS_9allocatorIiEEE7__allocEv>
100006f25: 48 89 c7                    	movq	%rax, %rdi
100006f28: e8 73 01 00 00              	callq	371 <__ZNSt3__116allocator_traitsINS_9allocatorIiEEE8max_sizeERKS2_>
100006f2d: 48 89 45 f0                 	movq	%rax, -16(%rbp)
100006f31: e8 3a f2 ff ff              	callq	-3526 <__ZNSt3__114numeric_limitsIlE3maxEv>
100006f36: 48 89 45 e8                 	movq	%rax, -24(%rbp)
100006f3a: 48 8d 7d f0                 	leaq	-16(%rbp), %rdi
100006f3e: 48 8d 75 e8                 	leaq	-24(%rbp), %rsi
100006f42: e8 a9 f1 ff ff              	callq	-3671 <__ZNSt3__1L3minImEERKT_S3_S3_>
100006f47: 48 89 45 d0                 	movq	%rax, -48(%rbp)
100006f4b: e9 00 00 00 00              	jmp	0 <__ZNKSt3__16vectorIiNS_9allocatorIiEEE8max_sizeEv+0x40>
100006f50: 48 8b 45 d0                 	movq	-48(%rbp), %rax
100006f54: 48 8b 00                    	movq	(%rax), %rax
100006f57: 48 83 c4 30                 	addq	$48, %rsp
100006f5b: 5d                          	popq	%rbp
100006f5c: c3                          	retq
100006f5d: 48 89 45 e0                 	movq	%rax, -32(%rbp)
100006f61: 89 55 dc                    	movl	%edx, -36(%rbp)
100006f64: 48 8b 7d e0                 	movq	-32(%rbp), %rdi
100006f68: e8 a1 0a 00 00              	callq	2721 <dyld_stub_binder+0x100007a0e>
100006f6d: 0f 1f 00                    	nopl	(%rax)

0000000100006f70 __ZNSt3__116allocator_traitsINS_9allocatorIiEEE8allocateERS2_m:
100006f70: 55                          	pushq	%rbp
100006f71: 48 89 e5                    	movq	%rsp, %rbp
100006f74: 48 83 ec 10                 	subq	$16, %rsp
100006f78: 31 c0                       	xorl	%eax, %eax
100006f7a: 89 c2                       	movl	%eax, %edx
100006f7c: 48 89 7d f8                 	movq	%rdi, -8(%rbp)
100006f80: 48 89 75 f0                 	movq	%rsi, -16(%rbp)
100006f84: 48 8b 7d f8                 	movq	-8(%rbp), %rdi
100006f88: 48 8b 75 f0                 	movq	-16(%rbp), %rsi
100006f8c: e8 cf 01 00 00              	callq	463 <__ZNSt3__19allocatorIiE8allocateEmPKv>
100006f91: 48 83 c4 10                 	addq	$16, %rsp
100006f95: 5d                          	popq	%rbp
100006f96: c3                          	retq
100006f97: 66 0f 1f 84 00 00 00 00 00  	nopw	(%rax,%rax)

0000000100006fa0 __ZNSt3__113__vector_baseIiNS_9allocatorIiEEE7__allocEv:
100006fa0: 55                          	pushq	%rbp
100006fa1: 48 89 e5                    	movq	%rsp, %rbp
100006fa4: 48 83 ec 10                 	subq	$16, %rsp
100006fa8: 48 89 7d f8                 	movq	%rdi, -8(%rbp)
100006fac: 48 8b 45 f8                 	movq	-8(%rbp), %rax
100006fb0: 48 05 10 00 00 00           	addq	$16, %rax
100006fb6: 48 89 c7                    	movq	%rax, %rdi
100006fb9: e8 02 02 00 00              	callq	514 <__ZNSt3__117__compressed_pairIPiNS_9allocatorIiEEE6secondEv>
100006fbe: 48 83 c4 10                 	addq	$16, %rsp
100006fc2: 5d                          	popq	%rbp
100006fc3: c3                          	retq
100006fc4: 66 2e 0f 1f 84 00 00 00 00 00       	nopw	%cs:(%rax,%rax)
100006fce: 66 90                       	nop

0000000100006fd0 __ZNSt3__113__vector_baseIiNS_9allocatorIiEEE9__end_capEv:
100006fd0: 55                          	pushq	%rbp
100006fd1: 48 89 e5                    	movq	%rsp, %rbp
100006fd4: 48 83 ec 10                 	subq	$16, %rsp
100006fd8: 48 89 7d f8                 	movq	%rdi, -8(%rbp)
100006fdc: 48 8b 45 f8                 	movq	-8(%rbp), %rax
100006fe0: 48 05 10 00 00 00           	addq	$16, %rax
100006fe6: 48 89 c7                    	movq	%rax, %rdi
100006fe9: e8 02 02 00 00              	callq	514 <__ZNSt3__117__compressed_pairIPiNS_9allocatorIiEEE5firstEv>
100006fee: 48 83 c4 10                 	addq	$16, %rsp
100006ff2: 5d                          	popq	%rbp
100006ff3: c3                          	retq
100006ff4: 66 2e 0f 1f 84 00 00 00 00 00       	nopw	%cs:(%rax,%rax)
100006ffe: 66 90                       	nop

0000000100007000 __ZNKSt3__16vectorIiNS_9allocatorIiEEE14__annotate_newEm:
100007000: 55                          	pushq	%rbp
100007001: 48 89 e5                    	movq	%rsp, %rbp
100007004: 48 83 ec 40                 	subq	$64, %rsp
100007008: 48 89 7d f8                 	movq	%rdi, -8(%rbp)
10000700c: 48 89 75 f0                 	movq	%rsi, -16(%rbp)
100007010: 48 8b 45 f8                 	movq	-8(%rbp), %rax
100007014: 48 89 c7                    	movq	%rax, %rdi
100007017: 48 89 45 e8                 	movq	%rax, -24(%rbp)
10000701b: e8 20 02 00 00              	callq	544 <__ZNKSt3__16vectorIiNS_9allocatorIiEEE4dataEv>
100007020: 48 8b 7d e8                 	movq	-24(%rbp), %rdi
100007024: 48 89 45 e0                 	movq	%rax, -32(%rbp)
100007028: e8 13 02 00 00              	callq	531 <__ZNKSt3__16vectorIiNS_9allocatorIiEEE4dataEv>
10000702d: 48 8b 7d e8                 	movq	-24(%rbp), %rdi
100007031: 48 89 45 d8                 	movq	%rax, -40(%rbp)
100007035: e8 26 02 00 00              	callq	550 <__ZNKSt3__16vectorIiNS_9allocatorIiEEE8capacityEv>
10000703a: 48 c1 e0 02                 	shlq	$2, %rax
10000703e: 48 8b 4d d8                 	movq	-40(%rbp), %rcx
100007042: 48 01 c1                    	addq	%rax, %rcx
100007045: 48 8b 7d e8                 	movq	-24(%rbp), %rdi
100007049: 48 89 4d d0                 	movq	%rcx, -48(%rbp)
10000704d: e8 ee 01 00 00              	callq	494 <__ZNKSt3__16vectorIiNS_9allocatorIiEEE4dataEv>
100007052: 48 8b 7d e8                 	movq	-24(%rbp), %rdi
100007056: 48 89 45 c8                 	movq	%rax, -56(%rbp)
10000705a: e8 01 02 00 00              	callq	513 <__ZNKSt3__16vectorIiNS_9allocatorIiEEE8capacityEv>
10000705f: 48 c1 e0 02                 	shlq	$2, %rax
100007063: 48 8b 4d c8                 	movq	-56(%rbp), %rcx
100007067: 48 01 c1                    	addq	%rax, %rcx
10000706a: 48 8b 7d e8                 	movq	-24(%rbp), %rdi
10000706e: 48 89 4d c0                 	movq	%rcx, -64(%rbp)
100007072: e8 c9 01 00 00              	callq	457 <__ZNKSt3__16vectorIiNS_9allocatorIiEEE4dataEv>
100007077: 48 8b 4d f0                 	movq	-16(%rbp), %rcx
10000707b: 48 c1 e1 02                 	shlq	$2, %rcx
10000707f: 48 01 c8                    	addq	%rcx, %rax
100007082: 48 8b 7d e8                 	movq	-24(%rbp), %rdi
100007086: 48 8b 75 e0                 	movq	-32(%rbp), %rsi
10000708a: 48 8b 55 d0                 	movq	-48(%rbp), %rdx
10000708e: 48 8b 4d c0                 	movq	-64(%rbp), %rcx
100007092: 49 89 c0                    	movq	%rax, %r8
100007095: e8 86 01 00 00              	callq	390 <__ZNKSt3__16vectorIiNS_9allocatorIiEEE31__annotate_contiguous_containerEPKvS5_S5_S5_>
10000709a: 48 83 c4 40                 	addq	$64, %rsp
10000709e: 5d                          	popq	%rbp
10000709f: c3                          	retq

00000001000070a0 __ZNSt3__116allocator_traitsINS_9allocatorIiEEE8max_sizeERKS2_:
1000070a0: 55                          	pushq	%rbp
1000070a1: 48 89 e5                    	movq	%rsp, %rbp
1000070a4: 48 83 ec 20                 	subq	$32, %rsp
1000070a8: 48 89 7d f8                 	movq	%rdi, -8(%rbp)
1000070ac: 48 8b 7d f8                 	movq	-8(%rbp), %rdi
1000070b0: e8 3b 00 00 00              	callq	59 <__ZNSt3__116allocator_traitsINS_9allocatorIiEEE10__max_sizeENS_17integral_constantIbLb1EEERKS2_>
1000070b5: 48 83 c4 20                 	addq	$32, %rsp
1000070b9: 5d                          	popq	%rbp
1000070ba: c3                          	retq
1000070bb: 0f 1f 44 00 00              	nopl	(%rax,%rax)

00000001000070c0 __ZNKSt3__113__vector_baseIiNS_9allocatorIiEEE7__allocEv:
1000070c0: 55                          	pushq	%rbp
1000070c1: 48 89 e5                    	movq	%rsp, %rbp
1000070c4: 48 83 ec 10                 	subq	$16, %rsp
1000070c8: 48 89 7d f8                 	movq	%rdi, -8(%rbp)
1000070cc: 48 8b 45 f8                 	movq	-8(%rbp), %rax
1000070d0: 48 05 10 00 00 00           	addq	$16, %rax
1000070d6: 48 89 c7                    	movq	%rax, %rdi
1000070d9: e8 52 00 00 00              	callq	82 <__ZNKSt3__117__compressed_pairIPiNS_9allocatorIiEEE6secondEv>
1000070de: 48 83 c4 10                 	addq	$16, %rsp
1000070e2: 5d                          	popq	%rbp
1000070e3: c3                          	retq
1000070e4: 66 2e 0f 1f 84 00 00 00 00 00       	nopw	%cs:(%rax,%rax)
1000070ee: 66 90                       	nop

00000001000070f0 __ZNSt3__116allocator_traitsINS_9allocatorIiEEE10__max_sizeENS_17integral_constantIbLb1EEERKS2_:
1000070f0: 55                          	pushq	%rbp
1000070f1: 48 89 e5                    	movq	%rsp, %rbp
1000070f4: 48 83 ec 10                 	subq	$16, %rsp
1000070f8: 48 89 7d f0                 	movq	%rdi, -16(%rbp)
1000070fc: 48 8b 7d f0                 	movq	-16(%rbp), %rdi
100007100: e8 0b 00 00 00              	callq	11 <__ZNKSt3__19allocatorIiE8max_sizeEv>
100007105: 48 83 c4 10                 	addq	$16, %rsp
100007109: 5d                          	popq	%rbp
10000710a: c3                          	retq
10000710b: 0f 1f 44 00 00              	nopl	(%rax,%rax)

0000000100007110 __ZNKSt3__19allocatorIiE8max_sizeEv:
100007110: 55                          	pushq	%rbp
100007111: 48 89 e5                    	movq	%rsp, %rbp
100007114: 48 89 7d f8                 	movq	%rdi, -8(%rbp)
100007118: 48 b8 ff ff ff ff ff ff ff 3f       	movabsq	$4611686018427387903, %rax
100007122: 5d                          	popq	%rbp
100007123: c3                          	retq
100007124: 66 2e 0f 1f 84 00 00 00 00 00       	nopw	%cs:(%rax,%rax)
10000712e: 66 90                       	nop

0000000100007130 __ZNKSt3__117__compressed_pairIPiNS_9allocatorIiEEE6secondEv:
100007130: 55                          	pushq	%rbp
100007131: 48 89 e5                    	movq	%rsp, %rbp
100007134: 48 83 ec 10                 	subq	$16, %rsp
100007138: 48 89 7d f8                 	movq	%rdi, -8(%rbp)
10000713c: 48 8b 45 f8                 	movq	-8(%rbp), %rax
100007140: 48 89 c7                    	movq	%rax, %rdi
100007143: e8 08 00 00 00              	callq	8 <__ZNKSt3__122__compressed_pair_elemINS_9allocatorIiEELi1ELb1EE5__getEv>
100007148: 48 83 c4 10                 	addq	$16, %rsp
10000714c: 5d                          	popq	%rbp
10000714d: c3                          	retq
10000714e: 66 90                       	nop

0000000100007150 __ZNKSt3__122__compressed_pair_elemINS_9allocatorIiEELi1ELb1EE5__getEv:
100007150: 55                          	pushq	%rbp
100007151: 48 89 e5                    	movq	%rsp, %rbp
100007154: 48 89 7d f8                 	movq	%rdi, -8(%rbp)
100007158: 48 8b 45 f8                 	movq	-8(%rbp), %rax
10000715c: 5d                          	popq	%rbp
10000715d: c3                          	retq
10000715e: 66 90                       	nop

0000000100007160 __ZNSt3__19allocatorIiE8allocateEmPKv:
100007160: 55                          	pushq	%rbp
100007161: 48 89 e5                    	movq	%rsp, %rbp
100007164: 48 83 ec 20                 	subq	$32, %rsp
100007168: 48 89 7d f8                 	movq	%rdi, -8(%rbp)
10000716c: 48 89 75 f0                 	movq	%rsi, -16(%rbp)
100007170: 48 89 55 e8                 	movq	%rdx, -24(%rbp)
100007174: 48 8b 7d f8                 	movq	-8(%rbp), %rdi
100007178: 48 8b 45 f0                 	movq	-16(%rbp), %rax
10000717c: 48 89 45 e0                 	movq	%rax, -32(%rbp)
100007180: e8 8b ff ff ff              	callq	-117 <__ZNKSt3__19allocatorIiE8max_sizeEv>
100007185: 48 8b 4d e0                 	movq	-32(%rbp), %rcx
100007189: 48 39 c1                    	cmpq	%rax, %rcx
10000718c: 0f 86 0c 00 00 00           	jbe	12 <__ZNSt3__19allocatorIiE8allocateEmPKv+0x3e>
100007192: 48 8d 3d 54 0c 00 00        	leaq	3156(%rip), %rdi
100007199: e8 42 f1 ff ff              	callq	-3774 <__ZNSt3__1L20__throw_length_errorEPKc>
10000719e: 48 8b 45 f0                 	movq	-16(%rbp), %rax
1000071a2: 48 c1 e0 02                 	shlq	$2, %rax
1000071a6: 48 89 c7                    	movq	%rax, %rdi
1000071a9: be 04 00 00 00              	movl	$4, %esi
1000071ae: e8 8d f1 ff ff              	callq	-3699 <__ZNSt3__1L17__libcpp_allocateEmm>
1000071b3: 48 83 c4 20                 	addq	$32, %rsp
1000071b7: 5d                          	popq	%rbp
1000071b8: c3                          	retq
1000071b9: 0f 1f 80 00 00 00 00        	nopl	(%rax)

00000001000071c0 __ZNSt3__117__compressed_pairIPiNS_9allocatorIiEEE6secondEv:
1000071c0: 55                          	pushq	%rbp
1000071c1: 48 89 e5                    	movq	%rsp, %rbp
1000071c4: 48 83 ec 10                 	subq	$16, %rsp
1000071c8: 48 89 7d f8                 	movq	%rdi, -8(%rbp)
1000071cc: 48 8b 45 f8                 	movq	-8(%rbp), %rax
1000071d0: 48 89 c7                    	movq	%rax, %rdi
1000071d3: e8 08 00 00 00              	callq	8 <__ZNSt3__122__compressed_pair_elemINS_9allocatorIiEELi1ELb1EE5__getEv>
1000071d8: 48 83 c4 10                 	addq	$16, %rsp
1000071dc: 5d                          	popq	%rbp
1000071dd: c3                          	retq
1000071de: 66 90                       	nop

00000001000071e0 __ZNSt3__122__compressed_pair_elemINS_9allocatorIiEELi1ELb1EE5__getEv:
1000071e0: 55                          	pushq	%rbp
1000071e1: 48 89 e5                    	movq	%rsp, %rbp
1000071e4: 48 89 7d f8                 	movq	%rdi, -8(%rbp)
1000071e8: 48 8b 45 f8                 	movq	-8(%rbp), %rax
1000071ec: 5d                          	popq	%rbp
1000071ed: c3                          	retq
1000071ee: 66 90                       	nop

00000001000071f0 __ZNSt3__117__compressed_pairIPiNS_9allocatorIiEEE5firstEv:
1000071f0: 55                          	pushq	%rbp
1000071f1: 48 89 e5                    	movq	%rsp, %rbp
1000071f4: 48 83 ec 10                 	subq	$16, %rsp
1000071f8: 48 89 7d f8                 	movq	%rdi, -8(%rbp)
1000071fc: 48 8b 45 f8                 	movq	-8(%rbp), %rax
100007200: 48 89 c7                    	movq	%rax, %rdi
100007203: e8 08 00 00 00              	callq	8 <__ZNSt3__122__compressed_pair_elemIPiLi0ELb0EE5__getEv>
100007208: 48 83 c4 10                 	addq	$16, %rsp
10000720c: 5d                          	popq	%rbp
10000720d: c3                          	retq
10000720e: 66 90                       	nop

0000000100007210 __ZNSt3__122__compressed_pair_elemIPiLi0ELb0EE5__getEv:
100007210: 55                          	pushq	%rbp
100007211: 48 89 e5                    	movq	%rsp, %rbp
100007214: 48 89 7d f8                 	movq	%rdi, -8(%rbp)
100007218: 48 8b 45 f8                 	movq	-8(%rbp), %rax
10000721c: 5d                          	popq	%rbp
10000721d: c3                          	retq
10000721e: 66 90                       	nop

0000000100007220 __ZNKSt3__16vectorIiNS_9allocatorIiEEE31__annotate_contiguous_containerEPKvS5_S5_S5_:
100007220: 55                          	pushq	%rbp
100007221: 48 89 e5                    	movq	%rsp, %rbp
100007224: 48 89 7d f8                 	movq	%rdi, -8(%rbp)
100007228: 48 89 75 f0                 	movq	%rsi, -16(%rbp)
10000722c: 48 89 55 e8                 	movq	%rdx, -24(%rbp)
100007230: 48 89 4d e0                 	movq	%rcx, -32(%rbp)
100007234: 4c 89 45 d8                 	movq	%r8, -40(%rbp)
100007238: 5d                          	popq	%rbp
100007239: c3                          	retq
10000723a: 66 0f 1f 44 00 00           	nopw	(%rax,%rax)

0000000100007240 __ZNKSt3__16vectorIiNS_9allocatorIiEEE4dataEv:
100007240: 55                          	pushq	%rbp
100007241: 48 89 e5                    	movq	%rsp, %rbp
100007244: 48 83 ec 10                 	subq	$16, %rsp
100007248: 48 89 7d f8                 	movq	%rdi, -8(%rbp)
10000724c: 48 8b 45 f8                 	movq	-8(%rbp), %rax
100007250: 48 8b 38                    	movq	(%rax), %rdi
100007253: e8 28 00 00 00              	callq	40 <__ZNSt3__1L12__to_addressIiEEPT_S2_>
100007258: 48 83 c4 10                 	addq	$16, %rsp
10000725c: 5d                          	popq	%rbp
10000725d: c3                          	retq
10000725e: 66 90                       	nop

0000000100007260 __ZNKSt3__16vectorIiNS_9allocatorIiEEE8capacityEv:
100007260: 55                          	pushq	%rbp
100007261: 48 89 e5                    	movq	%rsp, %rbp
100007264: 48 83 ec 10                 	subq	$16, %rsp
100007268: 48 89 7d f8                 	movq	%rdi, -8(%rbp)
10000726c: 48 8b 45 f8                 	movq	-8(%rbp), %rax
100007270: 48 89 c7                    	movq	%rax, %rdi
100007273: e8 18 00 00 00              	callq	24 <__ZNKSt3__113__vector_baseIiNS_9allocatorIiEEE8capacityEv>
100007278: 48 83 c4 10                 	addq	$16, %rsp
10000727c: 5d                          	popq	%rbp
10000727d: c3                          	retq
10000727e: 66 90                       	nop

0000000100007280 __ZNSt3__1L12__to_addressIiEEPT_S2_:
100007280: 55                          	pushq	%rbp
100007281: 48 89 e5                    	movq	%rsp, %rbp
100007284: 48 89 7d f8                 	movq	%rdi, -8(%rbp)
100007288: 48 8b 45 f8                 	movq	-8(%rbp), %rax
10000728c: 5d                          	popq	%rbp
10000728d: c3                          	retq
10000728e: 66 90                       	nop

0000000100007290 __ZNKSt3__113__vector_baseIiNS_9allocatorIiEEE8capacityEv:
100007290: 55                          	pushq	%rbp
100007291: 48 89 e5                    	movq	%rsp, %rbp
100007294: 48 83 ec 10                 	subq	$16, %rsp
100007298: 48 89 7d f8                 	movq	%rdi, -8(%rbp)
10000729c: 48 8b 45 f8                 	movq	-8(%rbp), %rax
1000072a0: 48 89 c7                    	movq	%rax, %rdi
1000072a3: 48 89 45 f0                 	movq	%rax, -16(%rbp)
1000072a7: e8 24 00 00 00              	callq	36 <__ZNKSt3__113__vector_baseIiNS_9allocatorIiEEE9__end_capEv>
1000072ac: 48 8b 00                    	movq	(%rax), %rax
1000072af: 48 8b 4d f0                 	movq	-16(%rbp), %rcx
1000072b3: 48 8b 11                    	movq	(%rcx), %rdx
1000072b6: 48 29 d0                    	subq	%rdx, %rax
1000072b9: 48 c1 f8 02                 	sarq	$2, %rax
1000072bd: 48 83 c4 10                 	addq	$16, %rsp
1000072c1: 5d                          	popq	%rbp
1000072c2: c3                          	retq
1000072c3: 66 2e 0f 1f 84 00 00 00 00 00       	nopw	%cs:(%rax,%rax)
1000072cd: 0f 1f 00                    	nopl	(%rax)

00000001000072d0 __ZNKSt3__113__vector_baseIiNS_9allocatorIiEEE9__end_capEv:
1000072d0: 55                          	pushq	%rbp
1000072d1: 48 89 e5                    	movq	%rsp, %rbp
1000072d4: 48 83 ec 10                 	subq	$16, %rsp
1000072d8: 48 89 7d f8                 	movq	%rdi, -8(%rbp)
1000072dc: 48 8b 45 f8                 	movq	-8(%rbp), %rax
1000072e0: 48 05 10 00 00 00           	addq	$16, %rax
1000072e6: 48 89 c7                    	movq	%rax, %rdi
1000072e9: e8 12 00 00 00              	callq	18 <__ZNKSt3__117__compressed_pairIPiNS_9allocatorIiEEE5firstEv>
1000072ee: 48 83 c4 10                 	addq	$16, %rsp
1000072f2: 5d                          	popq	%rbp
1000072f3: c3                          	retq
1000072f4: 66 2e 0f 1f 84 00 00 00 00 00       	nopw	%cs:(%rax,%rax)
1000072fe: 66 90                       	nop

0000000100007300 __ZNKSt3__117__compressed_pairIPiNS_9allocatorIiEEE5firstEv:
100007300: 55                          	pushq	%rbp
100007301: 48 89 e5                    	movq	%rsp, %rbp
100007304: 48 83 ec 10                 	subq	$16, %rsp
100007308: 48 89 7d f8                 	movq	%rdi, -8(%rbp)
10000730c: 48 8b 45 f8                 	movq	-8(%rbp), %rax
100007310: 48 89 c7                    	movq	%rax, %rdi
100007313: e8 08 00 00 00              	callq	8 <__ZNKSt3__122__compressed_pair_elemIPiLi0ELb0EE5__getEv>
100007318: 48 83 c4 10                 	addq	$16, %rsp
10000731c: 5d                          	popq	%rbp
10000731d: c3                          	retq
10000731e: 66 90                       	nop

0000000100007320 __ZNKSt3__122__compressed_pair_elemIPiLi0ELb0EE5__getEv:
100007320: 55                          	pushq	%rbp
100007321: 48 89 e5                    	movq	%rsp, %rbp
100007324: 48 89 7d f8                 	movq	%rdi, -8(%rbp)
100007328: 48 8b 45 f8                 	movq	-8(%rbp), %rax
10000732c: 5d                          	popq	%rbp
10000732d: c3                          	retq
10000732e: 66 90                       	nop

0000000100007330 __ZNSt3__16vectorIiNS_9allocatorIiEEE21_ConstructTransactionC1ERS3_m:
100007330: 55                          	pushq	%rbp
100007331: 48 89 e5                    	movq	%rsp, %rbp
100007334: 48 83 ec 20                 	subq	$32, %rsp
100007338: 48 89 7d f8                 	movq	%rdi, -8(%rbp)
10000733c: 48 89 75 f0                 	movq	%rsi, -16(%rbp)
100007340: 48 89 55 e8                 	movq	%rdx, -24(%rbp)
100007344: 48 8b 7d f8                 	movq	-8(%rbp), %rdi
100007348: 48 8b 75 f0                 	movq	-16(%rbp), %rsi
10000734c: 48 8b 55 e8                 	movq	-24(%rbp), %rdx
100007350: e8 7b 00 00 00              	callq	123 <__ZNSt3__16vectorIiNS_9allocatorIiEEE21_ConstructTransactionC2ERS3_m>
100007355: 48 83 c4 20                 	addq	$32, %rsp
100007359: 5d                          	popq	%rbp
10000735a: c3                          	retq
10000735b: 0f 1f 44 00 00              	nopl	(%rax,%rax)

0000000100007360 __ZNSt3__116allocator_traitsINS_9allocatorIiEEE25__construct_range_forwardIKiiiiEENS_9enable_ifIXaaaasr31is_trivially_copy_constructibleIT0_EE5valuesr7is_sameIT1_T2_EE5valueooL_ZNS_17integral_constantIbLb1EE5valueEEntsr15__has_constructIS2_PS7_RT_EE5valueEvE4typeERS2_PSD_SI_RSC_:
100007360: 55                          	pushq	%rbp
100007361: 48 89 e5                    	movq	%rsp, %rbp
100007364: 48 83 ec 30                 	subq	$48, %rsp
100007368: 48 89 7d f8                 	movq	%rdi, -8(%rbp)
10000736c: 48 89 75 f0                 	movq	%rsi, -16(%rbp)
100007370: 48 89 55 e8                 	movq	%rdx, -24(%rbp)
100007374: 48 89 4d e0                 	movq	%rcx, -32(%rbp)
100007378: 48 8b 45 e8                 	movq	-24(%rbp), %rax
10000737c: 48 8b 4d f0                 	movq	-16(%rbp), %rcx
100007380: 48 29 c8                    	subq	%rcx, %rax
100007383: 48 c1 f8 02                 	sarq	$2, %rax
100007387: 48 89 45 d8                 	movq	%rax, -40(%rbp)
10000738b: 48 83 7d d8 00              	cmpq	$0, -40(%rbp)
100007390: 0f 8e 30 00 00 00           	jle	48 <__ZNSt3__116allocator_traitsINS_9allocatorIiEEE25__construct_range_forwardIKiiiiEENS_9enable_ifIXaaaasr31is_trivially_copy_constructibleIT0_EE5valuesr7is_sameIT1_T2_EE5valueooL_ZNS_17integral_constantIbLb1EE5valueEEntsr15__has_constructIS2_PS7_RT_EE5valueEvE4typeERS2_PSD_SI_RSC_+0x66>
100007396: 48 8b 45 e0                 	movq	-32(%rbp), %rax
10000739a: 48 8b 00                    	movq	(%rax), %rax
10000739d: 48 8b 4d f0                 	movq	-16(%rbp), %rcx
1000073a1: 48 8b 55 d8                 	movq	-40(%rbp), %rdx
1000073a5: 48 c1 e2 02                 	shlq	$2, %rdx
1000073a9: 48 89 c7                    	movq	%rax, %rdi
1000073ac: 48 89 ce                    	movq	%rcx, %rsi
1000073af: e8 7e 06 00 00              	callq	1662 <dyld_stub_binder+0x100007a32>
1000073b4: 48 8b 45 d8                 	movq	-40(%rbp), %rax
1000073b8: 48 8b 4d e0                 	movq	-32(%rbp), %rcx
1000073bc: 48 c1 e0 02                 	shlq	$2, %rax
1000073c0: 48 03 01                    	addq	(%rcx), %rax
1000073c3: 48 89 01                    	movq	%rax, (%rcx)
1000073c6: 48 83 c4 30                 	addq	$48, %rsp
1000073ca: 5d                          	popq	%rbp
1000073cb: c3                          	retq
1000073cc: 0f 1f 40 00                 	nopl	(%rax)

00000001000073d0 __ZNSt3__16vectorIiNS_9allocatorIiEEE21_ConstructTransactionC2ERS3_m:
1000073d0: 55                          	pushq	%rbp
1000073d1: 48 89 e5                    	movq	%rsp, %rbp
1000073d4: 48 89 7d f8                 	movq	%rdi, -8(%rbp)
1000073d8: 48 89 75 f0                 	movq	%rsi, -16(%rbp)
1000073dc: 48 89 55 e8                 	movq	%rdx, -24(%rbp)
1000073e0: 48 8b 45 f8                 	movq	-8(%rbp), %rax
1000073e4: 48 8b 4d f0                 	movq	-16(%rbp), %rcx
1000073e8: 48 89 08                    	movq	%rcx, (%rax)
1000073eb: 48 8b 4d f0                 	movq	-16(%rbp), %rcx
1000073ef: 48 8b 49 08                 	movq	8(%rcx), %rcx
1000073f3: 48 89 48 08                 	movq	%rcx, 8(%rax)
1000073f7: 48 8b 4d f0                 	movq	-16(%rbp), %rcx
1000073fb: 48 8b 49 08                 	movq	8(%rcx), %rcx
1000073ff: 48 8b 55 e8                 	movq	-24(%rbp), %rdx
100007403: 48 c1 e2 02                 	shlq	$2, %rdx
100007407: 48 01 d1                    	addq	%rdx, %rcx
10000740a: 48 89 48 10                 	movq	%rcx, 16(%rax)
10000740e: 5d                          	popq	%rbp
10000740f: c3                          	retq

0000000100007410 __ZNSt3__113__vector_baseIiNS_9allocatorIiEEE5clearEv:
100007410: 55                          	pushq	%rbp
100007411: 48 89 e5                    	movq	%rsp, %rbp
100007414: 48 83 ec 10                 	subq	$16, %rsp
100007418: 48 89 7d f8                 	movq	%rdi, -8(%rbp)
10000741c: 48 8b 45 f8                 	movq	-8(%rbp), %rax
100007420: 48 8b 30                    	movq	(%rax), %rsi
100007423: 48 89 c7                    	movq	%rax, %rdi
100007426: e8 45 00 00 00              	callq	69 <__ZNSt3__113__vector_baseIiNS_9allocatorIiEEE17__destruct_at_endEPi>
10000742b: 48 83 c4 10                 	addq	$16, %rsp
10000742f: 5d                          	popq	%rbp
100007430: c3                          	retq
100007431: 66 2e 0f 1f 84 00 00 00 00 00       	nopw	%cs:(%rax,%rax)
10000743b: 0f 1f 44 00 00              	nopl	(%rax,%rax)

0000000100007440 __ZNSt3__116allocator_traitsINS_9allocatorIiEEE10deallocateERS2_Pim:
100007440: 55                          	pushq	%rbp
100007441: 48 89 e5                    	movq	%rsp, %rbp
100007444: 48 83 ec 20                 	subq	$32, %rsp
100007448: 48 89 7d f8                 	movq	%rdi, -8(%rbp)
10000744c: 48 89 75 f0                 	movq	%rsi, -16(%rbp)
100007450: 48 89 55 e8                 	movq	%rdx, -24(%rbp)
100007454: 48 8b 7d f8                 	movq	-8(%rbp), %rdi
100007458: 48 8b 75 f0                 	movq	-16(%rbp), %rsi
10000745c: 48 8b 55 e8                 	movq	-24(%rbp), %rdx
100007460: e8 0b 01 00 00              	callq	267 <__ZNSt3__19allocatorIiE10deallocateEPim>
100007465: 48 83 c4 20                 	addq	$32, %rsp
100007469: 5d                          	popq	%rbp
10000746a: c3                          	retq
10000746b: 0f 1f 44 00 00              	nopl	(%rax,%rax)

0000000100007470 __ZNSt3__113__vector_baseIiNS_9allocatorIiEEE17__destruct_at_endEPi:
100007470: 55                          	pushq	%rbp
100007471: 48 89 e5                    	movq	%rsp, %rbp
100007474: 48 83 ec 40                 	subq	$64, %rsp
100007478: 48 89 7d f8                 	movq	%rdi, -8(%rbp)
10000747c: 48 89 75 f0                 	movq	%rsi, -16(%rbp)
100007480: 48 8b 45 f8                 	movq	-8(%rbp), %rax
100007484: 48 8b 48 08                 	movq	8(%rax), %rcx
100007488: 48 89 4d e8                 	movq	%rcx, -24(%rbp)
10000748c: 48 89 45 d0                 	movq	%rax, -48(%rbp)
100007490: 48 8b 45 f0                 	movq	-16(%rbp), %rax
100007494: 48 3b 45 e8                 	cmpq	-24(%rbp), %rax
100007498: 0f 84 47 00 00 00           	je	71 <__ZNSt3__113__vector_baseIiNS_9allocatorIiEEE17__destruct_at_endEPi+0x75>
10000749e: 48 8b 7d d0                 	movq	-48(%rbp), %rdi
1000074a2: e8 f9 fa ff ff              	callq	-1287 <__ZNSt3__113__vector_baseIiNS_9allocatorIiEEE7__allocEv>
1000074a7: 48 8b 4d e8                 	movq	-24(%rbp), %rcx
1000074ab: 48 83 c1 fc                 	addq	$-4, %rcx
1000074af: 48 89 4d e8                 	movq	%rcx, -24(%rbp)
1000074b3: 48 89 cf                    	movq	%rcx, %rdi
1000074b6: 48 89 45 c8                 	movq	%rax, -56(%rbp)
1000074ba: e8 c1 fd ff ff              	callq	-575 <__ZNSt3__1L12__to_addressIiEEPT_S2_>
1000074bf: 48 8b 7d c8                 	movq	-56(%rbp), %rdi
1000074c3: 48 89 c6                    	movq	%rax, %rsi
1000074c6: e8 35 00 00 00              	callq	53 <__ZNSt3__116allocator_traitsINS_9allocatorIiEEE7destroyIiEEvRS2_PT_>
1000074cb: e9 00 00 00 00              	jmp	0 <__ZNSt3__113__vector_baseIiNS_9allocatorIiEEE17__destruct_at_endEPi+0x60>
1000074d0: e9 bb ff ff ff              	jmp	-69 <__ZNSt3__113__vector_baseIiNS_9allocatorIiEEE17__destruct_at_endEPi+0x20>
1000074d5: 48 89 45 e0                 	movq	%rax, -32(%rbp)
1000074d9: 89 55 dc                    	movl	%edx, -36(%rbp)
1000074dc: 48 8b 7d e0                 	movq	-32(%rbp), %rdi
1000074e0: e8 29 05 00 00              	callq	1321 <dyld_stub_binder+0x100007a0e>
1000074e5: 48 8b 45 f0                 	movq	-16(%rbp), %rax
1000074e9: 48 8b 4d d0                 	movq	-48(%rbp), %rcx
1000074ed: 48 89 41 08                 	movq	%rax, 8(%rcx)
1000074f1: 48 83 c4 40                 	addq	$64, %rsp
1000074f5: 5d                          	popq	%rbp
1000074f6: c3                          	retq
1000074f7: 66 0f 1f 84 00 00 00 00 00  	nopw	(%rax,%rax)

0000000100007500 __ZNSt3__116allocator_traitsINS_9allocatorIiEEE7destroyIiEEvRS2_PT_:
100007500: 55                          	pushq	%rbp
100007501: 48 89 e5                    	movq	%rsp, %rbp
100007504: 48 83 ec 20                 	subq	$32, %rsp
100007508: 48 89 7d f8                 	movq	%rdi, -8(%rbp)
10000750c: 48 89 75 f0                 	movq	%rsi, -16(%rbp)
100007510: 48 8b 7d f8                 	movq	-8(%rbp), %rdi
100007514: 48 8b 75 f0                 	movq	-16(%rbp), %rsi
100007518: e8 13 00 00 00              	callq	19 <__ZNSt3__116allocator_traitsINS_9allocatorIiEEE9__destroyIiEEvNS_17integral_constantIbLb1EEERS2_PT_>
10000751d: 48 83 c4 20                 	addq	$32, %rsp
100007521: 5d                          	popq	%rbp
100007522: c3                          	retq
100007523: 66 2e 0f 1f 84 00 00 00 00 00       	nopw	%cs:(%rax,%rax)
10000752d: 0f 1f 00                    	nopl	(%rax)

0000000100007530 __ZNSt3__116allocator_traitsINS_9allocatorIiEEE9__destroyIiEEvNS_17integral_constantIbLb1EEERS2_PT_:
100007530: 55                          	pushq	%rbp
100007531: 48 89 e5                    	movq	%rsp, %rbp
100007534: 48 83 ec 20                 	subq	$32, %rsp
100007538: 48 89 7d f0                 	movq	%rdi, -16(%rbp)
10000753c: 48 89 75 e8                 	movq	%rsi, -24(%rbp)
100007540: 48 8b 7d f0                 	movq	-16(%rbp), %rdi
100007544: 48 8b 75 e8                 	movq	-24(%rbp), %rsi
100007548: e8 13 00 00 00              	callq	19 <__ZNSt3__19allocatorIiE7destroyEPi>
10000754d: 48 83 c4 20                 	addq	$32, %rsp
100007551: 5d                          	popq	%rbp
100007552: c3                          	retq
100007553: 66 2e 0f 1f 84 00 00 00 00 00       	nopw	%cs:(%rax,%rax)
10000755d: 0f 1f 00                    	nopl	(%rax)

0000000100007560 __ZNSt3__19allocatorIiE7destroyEPi:
100007560: 55                          	pushq	%rbp
100007561: 48 89 e5                    	movq	%rsp, %rbp
100007564: 48 89 7d f8                 	movq	%rdi, -8(%rbp)
100007568: 48 89 75 f0                 	movq	%rsi, -16(%rbp)
10000756c: 5d                          	popq	%rbp
10000756d: c3                          	retq
10000756e: 66 90                       	nop

0000000100007570 __ZNSt3__19allocatorIiE10deallocateEPim:
100007570: 55                          	pushq	%rbp
100007571: 48 89 e5                    	movq	%rsp, %rbp
100007574: 48 83 ec 30                 	subq	$48, %rsp
100007578: 48 89 7d f8                 	movq	%rdi, -8(%rbp)
10000757c: 48 89 75 f0                 	movq	%rsi, -16(%rbp)
100007580: 48 89 55 e8                 	movq	%rdx, -24(%rbp)
100007584: 48 8b 7d f0                 	movq	-16(%rbp), %rdi
100007588: 48 8b 45 e8                 	movq	-24(%rbp), %rax
10000758c: 48 c1 e0 02                 	shlq	$2, %rax
100007590: ba 04 00 00 00              	movl	$4, %edx
100007595: 48 89 c6                    	movq	%rax, %rsi
100007598: e8 33 f3 ff ff              	callq	-3277 <__ZNSt3__1L19__libcpp_deallocateEPvmm>
10000759d: e9 00 00 00 00              	jmp	0 <__ZNSt3__19allocatorIiE10deallocateEPim+0x32>
1000075a2: 48 83 c4 30                 	addq	$48, %rsp
1000075a6: 5d                          	popq	%rbp
1000075a7: c3                          	retq
1000075a8: 48 89 45 e0                 	movq	%rax, -32(%rbp)
1000075ac: 89 55 dc                    	movl	%edx, -36(%rbp)
1000075af: 48 8b 7d e0                 	movq	-32(%rbp), %rdi
1000075b3: e8 56 04 00 00              	callq	1110 <dyld_stub_binder+0x100007a0e>
1000075b8: 0f 1f 84 00 00 00 00 00     	nopl	(%rax,%rax)

00000001000075c0 __ZNSt3__16vectorIiNS_9allocatorIiEEED2Ev:
1000075c0: 55                          	pushq	%rbp
1000075c1: 48 89 e5                    	movq	%rsp, %rbp
1000075c4: 48 83 ec 10                 	subq	$16, %rsp
1000075c8: 48 89 7d f8                 	movq	%rdi, -8(%rbp)
1000075cc: 48 8b 45 f8                 	movq	-8(%rbp), %rax
1000075d0: 48 89 c7                    	movq	%rax, %rdi
1000075d3: 48 89 45 f0                 	movq	%rax, -16(%rbp)
1000075d7: e8 14 00 00 00              	callq	20 <__ZNKSt3__16vectorIiNS_9allocatorIiEEE17__annotate_deleteEv>
1000075dc: 48 8b 45 f0                 	movq	-16(%rbp), %rax
1000075e0: 48 89 c7                    	movq	%rax, %rdi
1000075e3: e8 98 f7 ff ff              	callq	-2152 <__ZNSt3__113__vector_baseIiNS_9allocatorIiEEED2Ev>
1000075e8: 48 83 c4 10                 	addq	$16, %rsp
1000075ec: 5d                          	popq	%rbp
1000075ed: c3                          	retq
1000075ee: 66 90                       	nop

00000001000075f0 __ZNKSt3__16vectorIiNS_9allocatorIiEEE17__annotate_deleteEv:
1000075f0: 55                          	pushq	%rbp
1000075f1: 48 89 e5                    	movq	%rsp, %rbp
1000075f4: 48 83 ec 50                 	subq	$80, %rsp
1000075f8: 48 89 7d f8                 	movq	%rdi, -8(%rbp)
1000075fc: 48 8b 45 f8                 	movq	-8(%rbp), %rax
100007600: 48 89 c7                    	movq	%rax, %rdi
100007603: 48 89 45 f0                 	movq	%rax, -16(%rbp)
100007607: e8 34 fc ff ff              	callq	-972 <__ZNKSt3__16vectorIiNS_9allocatorIiEEE4dataEv>
10000760c: 48 8b 7d f0                 	movq	-16(%rbp), %rdi
100007610: 48 89 45 e8                 	movq	%rax, -24(%rbp)
100007614: e8 27 fc ff ff              	callq	-985 <__ZNKSt3__16vectorIiNS_9allocatorIiEEE4dataEv>
100007619: 48 8b 7d f0                 	movq	-16(%rbp), %rdi
10000761d: 48 89 45 e0                 	movq	%rax, -32(%rbp)
100007621: e8 3a fc ff ff              	callq	-966 <__ZNKSt3__16vectorIiNS_9allocatorIiEEE8capacityEv>
100007626: 48 c1 e0 02                 	shlq	$2, %rax
10000762a: 48 8b 4d e0                 	movq	-32(%rbp), %rcx
10000762e: 48 01 c1                    	addq	%rax, %rcx
100007631: 48 8b 7d f0                 	movq	-16(%rbp), %rdi
100007635: 48 89 4d d8                 	movq	%rcx, -40(%rbp)
100007639: e8 02 fc ff ff              	callq	-1022 <__ZNKSt3__16vectorIiNS_9allocatorIiEEE4dataEv>
10000763e: 48 8b 7d f0                 	movq	-16(%rbp), %rdi
100007642: 48 89 45 d0                 	movq	%rax, -48(%rbp)
100007646: e8 65 00 00 00              	callq	101 <__ZNKSt3__16vectorIiNS_9allocatorIiEEE4sizeEv>
10000764b: 48 c1 e0 02                 	shlq	$2, %rax
10000764f: 48 8b 4d d0                 	movq	-48(%rbp), %rcx
100007653: 48 01 c1                    	addq	%rax, %rcx
100007656: 48 8b 7d f0                 	movq	-16(%rbp), %rdi
10000765a: 48 89 4d c8                 	movq	%rcx, -56(%rbp)
10000765e: e8 dd fb ff ff              	callq	-1059 <__ZNKSt3__16vectorIiNS_9allocatorIiEEE4dataEv>
100007663: 48 8b 7d f0                 	movq	-16(%rbp), %rdi
100007667: 48 89 45 c0                 	movq	%rax, -64(%rbp)
10000766b: e8 f0 fb ff ff              	callq	-1040 <__ZNKSt3__16vectorIiNS_9allocatorIiEEE8capacityEv>
100007670: 48 c1 e0 02                 	shlq	$2, %rax
100007674: 48 8b 4d c0                 	movq	-64(%rbp), %rcx
100007678: 48 01 c1                    	addq	%rax, %rcx
10000767b: 48 8b 7d f0                 	movq	-16(%rbp), %rdi
10000767f: 48 8b 75 e8                 	movq	-24(%rbp), %rsi
100007683: 48 8b 55 d8                 	movq	-40(%rbp), %rdx
100007687: 48 8b 45 c8                 	movq	-56(%rbp), %rax
10000768b: 48 89 4d b8                 	movq	%rcx, -72(%rbp)
10000768f: 48 89 c1                    	movq	%rax, %rcx
100007692: 4c 8b 45 b8                 	movq	-72(%rbp), %r8
100007696: e8 85 fb ff ff              	callq	-1147 <__ZNKSt3__16vectorIiNS_9allocatorIiEEE31__annotate_contiguous_containerEPKvS5_S5_S5_>
10000769b: 48 83 c4 50                 	addq	$80, %rsp
10000769f: 5d                          	popq	%rbp
1000076a0: c3                          	retq
1000076a1: 66 2e 0f 1f 84 00 00 00 00 00       	nopw	%cs:(%rax,%rax)
1000076ab: 0f 1f 44 00 00              	nopl	(%rax,%rax)

00000001000076b0 __ZNKSt3__16vectorIiNS_9allocatorIiEEE4sizeEv:
1000076b0: 55                          	pushq	%rbp
1000076b1: 48 89 e5                    	movq	%rsp, %rbp
1000076b4: 48 89 7d f8                 	movq	%rdi, -8(%rbp)
1000076b8: 48 8b 45 f8                 	movq	-8(%rbp), %rax
1000076bc: 48 8b 48 08                 	movq	8(%rax), %rcx
1000076c0: 48 8b 00                    	movq	(%rax), %rax
1000076c3: 48 29 c1                    	subq	%rax, %rcx
1000076c6: 48 c1 f9 02                 	sarq	$2, %rcx
1000076ca: 48 89 c8                    	movq	%rcx, %rax
1000076cd: 5d                          	popq	%rbp
1000076ce: c3                          	retq
1000076cf: 90                          	nop

00000001000076d0 __ZNSt3__16vectorIiNS_9allocatorIiEEE11__make_iterEPi:
1000076d0: 55                          	pushq	%rbp
1000076d1: 48 89 e5                    	movq	%rsp, %rbp
1000076d4: 48 83 ec 20                 	subq	$32, %rsp
1000076d8: 48 89 7d f0                 	movq	%rdi, -16(%rbp)
1000076dc: 48 89 75 e8                 	movq	%rsi, -24(%rbp)
1000076e0: 48 8b 75 e8                 	movq	-24(%rbp), %rsi
1000076e4: 48 8d 7d f8                 	leaq	-8(%rbp), %rdi
1000076e8: e8 13 00 00 00              	callq	19 <__ZNSt3__111__wrap_iterIPiEC1ES1_>
1000076ed: 48 8b 45 f8                 	movq	-8(%rbp), %rax
1000076f1: 48 83 c4 20                 	addq	$32, %rsp
1000076f5: 5d                          	popq	%rbp
1000076f6: c3                          	retq
1000076f7: 66 0f 1f 84 00 00 00 00 00  	nopw	(%rax,%rax)

0000000100007700 __ZNSt3__111__wrap_iterIPiEC1ES1_:
100007700: 55                          	pushq	%rbp
100007701: 48 89 e5                    	movq	%rsp, %rbp
100007704: 48 83 ec 10                 	subq	$16, %rsp
100007708: 48 89 7d f8                 	movq	%rdi, -8(%rbp)
10000770c: 48 89 75 f0                 	movq	%rsi, -16(%rbp)
100007710: 48 8b 7d f8                 	movq	-8(%rbp), %rdi
100007714: 48 8b 75 f0                 	movq	-16(%rbp), %rsi
100007718: e8 13 00 00 00              	callq	19 <__ZNSt3__111__wrap_iterIPiEC2ES1_>
10000771d: 48 83 c4 10                 	addq	$16, %rsp
100007721: 5d                          	popq	%rbp
100007722: c3                          	retq
100007723: 66 2e 0f 1f 84 00 00 00 00 00       	nopw	%cs:(%rax,%rax)
10000772d: 0f 1f 00                    	nopl	(%rax)

0000000100007730 __ZNSt3__111__wrap_iterIPiEC2ES1_:
100007730: 55                          	pushq	%rbp
100007731: 48 89 e5                    	movq	%rsp, %rbp
100007734: 48 89 7d f8                 	movq	%rdi, -8(%rbp)
100007738: 48 89 75 f0                 	movq	%rsi, -16(%rbp)
10000773c: 48 8b 45 f8                 	movq	-8(%rbp), %rax
100007740: 48 8b 4d f0                 	movq	-16(%rbp), %rcx
100007744: 48 89 08                    	movq	%rcx, (%rax)
100007747: 5d                          	popq	%rbp
100007748: c3                          	retq
100007749: 0f 1f 80 00 00 00 00        	nopl	(%rax)

0000000100007750 __ZNSt3__119const_mem_fun_ref_tIv7AccountEC1EMS1_KFvvE:
100007750: 55                          	pushq	%rbp
100007751: 48 89 e5                    	movq	%rsp, %rbp
100007754: 48 83 ec 40                 	subq	$64, %rsp
100007758: 48 89 75 f0                 	movq	%rsi, -16(%rbp)
10000775c: 48 89 55 f8                 	movq	%rdx, -8(%rbp)
100007760: 48 8b 45 f0                 	movq	-16(%rbp), %rax
100007764: 48 8b 4d f8                 	movq	-8(%rbp), %rcx
100007768: 48 89 7d e8                 	movq	%rdi, -24(%rbp)
10000776c: 48 89 4d e0                 	movq	%rcx, -32(%rbp)
100007770: 48 89 45 d8                 	movq	%rax, -40(%rbp)
100007774: 48 8b 7d e8                 	movq	-24(%rbp), %rdi
100007778: 48 8b 45 d8                 	movq	-40(%rbp), %rax
10000777c: 48 8b 4d e0                 	movq	-32(%rbp), %rcx
100007780: 48 89 4d d0                 	movq	%rcx, -48(%rbp)
100007784: 48 89 45 c8                 	movq	%rax, -56(%rbp)
100007788: 48 8b 75 c8                 	movq	-56(%rbp), %rsi
10000778c: 48 8b 55 d0                 	movq	-48(%rbp), %rdx
100007790: e8 0b 00 00 00              	callq	11 <__ZNSt3__119const_mem_fun_ref_tIv7AccountEC2EMS1_KFvvE>
100007795: 48 83 c4 40                 	addq	$64, %rsp
100007799: 5d                          	popq	%rbp
10000779a: c3                          	retq
10000779b: 0f 1f 44 00 00              	nopl	(%rax,%rax)

00000001000077a0 __ZNSt3__119const_mem_fun_ref_tIv7AccountEC2EMS1_KFvvE:
1000077a0: 55                          	pushq	%rbp
1000077a1: 48 89 e5                    	movq	%rsp, %rbp
1000077a4: 48 89 75 f0                 	movq	%rsi, -16(%rbp)
1000077a8: 48 89 55 f8                 	movq	%rdx, -8(%rbp)
1000077ac: 48 8b 45 f0                 	movq	-16(%rbp), %rax
1000077b0: 48 8b 4d f8                 	movq	-8(%rbp), %rcx
1000077b4: 48 89 7d e8                 	movq	%rdi, -24(%rbp)
1000077b8: 48 89 4d e0                 	movq	%rcx, -32(%rbp)
1000077bc: 48 89 45 d8                 	movq	%rax, -40(%rbp)
1000077c0: 48 8b 45 e8                 	movq	-24(%rbp), %rax
1000077c4: 48 8b 4d d8                 	movq	-40(%rbp), %rcx
1000077c8: 48 8b 55 e0                 	movq	-32(%rbp), %rdx
1000077cc: 48 89 50 08                 	movq	%rdx, 8(%rax)
1000077d0: 48 89 08                    	movq	%rcx, (%rax)
1000077d3: 5d                          	popq	%rbp
1000077d4: c3                          	retq
1000077d5: 66 2e 0f 1f 84 00 00 00 00 00       	nopw	%cs:(%rax,%rax)
1000077df: 90                          	nop

00000001000077e0 __ZNKSt3__119const_mem_fun_ref_tIv7AccountEclERKS1_:
1000077e0: 55                          	pushq	%rbp
1000077e1: 48 89 e5                    	movq	%rsp, %rbp
1000077e4: 48 83 ec 30                 	subq	$48, %rsp
1000077e8: 48 89 7d f8                 	movq	%rdi, -8(%rbp)
1000077ec: 48 89 75 f0                 	movq	%rsi, -16(%rbp)
1000077f0: 48 8b 45 f8                 	movq	-8(%rbp), %rax
1000077f4: 48 8b 4d f0                 	movq	-16(%rbp), %rcx
1000077f8: 48 8b 10                    	movq	(%rax), %rdx
1000077fb: 48 8b 40 08                 	movq	8(%rax), %rax
1000077ff: 48 01 c1                    	addq	%rax, %rcx
100007802: 48 89 d0                    	movq	%rdx, %rax
100007805: 48 25 01 00 00 00           	andq	$1, %rax
10000780b: 48 83 f8 00                 	cmpq	$0, %rax
10000780f: 48 89 55 e8                 	movq	%rdx, -24(%rbp)
100007813: 48 89 4d e0                 	movq	%rcx, -32(%rbp)
100007817: 0f 84 1f 00 00 00           	je	31 <__ZNKSt3__119const_mem_fun_ref_tIv7AccountEclERKS1_+0x5c>
10000781d: 48 8b 45 e0                 	movq	-32(%rbp), %rax
100007821: 48 8b 08                    	movq	(%rax), %rcx
100007824: 48 8b 55 e8                 	movq	-24(%rbp), %rdx
100007828: 48 81 ea 01 00 00 00        	subq	$1, %rdx
10000782f: 48 8b 0c 11                 	movq	(%rcx,%rdx), %rcx
100007833: 48 89 4d d8                 	movq	%rcx, -40(%rbp)
100007837: e9 08 00 00 00              	jmp	8 <__ZNKSt3__119const_mem_fun_ref_tIv7AccountEclERKS1_+0x64>
10000783c: 48 8b 45 e8                 	movq	-24(%rbp), %rax
100007840: 48 89 45 d8                 	movq	%rax, -40(%rbp)
100007844: 48 8b 45 d8                 	movq	-40(%rbp), %rax
100007848: 48 8b 7d e0                 	movq	-32(%rbp), %rdi
10000784c: ff d0                       	callq	*%rax
10000784e: 48 83 c4 30                 	addq	$48, %rsp
100007852: 5d                          	popq	%rbp
100007853: c3                          	retq
100007854: 66 2e 0f 1f 84 00 00 00 00 00       	nopw	%cs:(%rax,%rax)
10000785e: 66 90                       	nop

0000000100007860 __ZNSt3__14pairINS_11__wrap_iterIP7AccountEENS1_IPiEEEC2ERKS4_RKS6_:
100007860: 55                          	pushq	%rbp
100007861: 48 89 e5                    	movq	%rsp, %rbp
100007864: 48 89 7d f8                 	movq	%rdi, -8(%rbp)
100007868: 48 89 75 f0                 	movq	%rsi, -16(%rbp)
10000786c: 48 89 55 e8                 	movq	%rdx, -24(%rbp)
100007870: 48 8b 45 f8                 	movq	-8(%rbp), %rax
100007874: 48 8b 4d f0                 	movq	-16(%rbp), %rcx
100007878: 48 8b 09                    	movq	(%rcx), %rcx
10000787b: 48 89 08                    	movq	%rcx, (%rax)
10000787e: 48 8b 4d e8                 	movq	-24(%rbp), %rcx
100007882: 48 8b 09                    	movq	(%rcx), %rcx
100007885: 48 89 48 08                 	movq	%rcx, 8(%rax)
100007889: 5d                          	popq	%rbp
10000788a: c3                          	retq
10000788b: 0f 1f 44 00 00              	nopl	(%rax,%rax)

0000000100007890 __ZNSt3__1eqIP7AccountS2_EEbRKNS_11__wrap_iterIT_EERKNS3_IT0_EE:
100007890: 55                          	pushq	%rbp
100007891: 48 89 e5                    	movq	%rsp, %rbp
100007894: 48 83 ec 20                 	subq	$32, %rsp
100007898: 48 89 7d f8                 	movq	%rdi, -8(%rbp)
10000789c: 48 89 75 f0                 	movq	%rsi, -16(%rbp)
1000078a0: 48 8b 7d f8                 	movq	-8(%rbp), %rdi
1000078a4: e8 27 00 00 00              	callq	39 <__ZNKSt3__111__wrap_iterIP7AccountE4baseEv>
1000078a9: 48 8b 7d f0                 	movq	-16(%rbp), %rdi
1000078ad: 48 89 45 e8                 	movq	%rax, -24(%rbp)
1000078b1: e8 1a 00 00 00              	callq	26 <__ZNKSt3__111__wrap_iterIP7AccountE4baseEv>
1000078b6: 48 8b 4d e8                 	movq	-24(%rbp), %rcx
1000078ba: 48 39 c1                    	cmpq	%rax, %rcx
1000078bd: 0f 94 c2                    	sete	%dl
1000078c0: 80 e2 01                    	andb	$1, %dl
1000078c3: 0f b6 c2                    	movzbl	%dl, %eax
1000078c6: 48 83 c4 20                 	addq	$32, %rsp
1000078ca: 5d                          	popq	%rbp
1000078cb: c3                          	retq
1000078cc: 0f 1f 40 00                 	nopl	(%rax)

00000001000078d0 __ZNKSt3__111__wrap_iterIP7AccountE4baseEv:
1000078d0: 55                          	pushq	%rbp
1000078d1: 48 89 e5                    	movq	%rsp, %rbp
1000078d4: 48 89 7d f8                 	movq	%rdi, -8(%rbp)
1000078d8: 48 8b 45 f8                 	movq	-8(%rbp), %rax
1000078dc: 48 8b 00                    	movq	(%rax), %rax
1000078df: 5d                          	popq	%rbp
1000078e0: c3                          	retq
1000078e1: 66 2e 0f 1f 84 00 00 00 00 00       	nopw	%cs:(%rax,%rax)
1000078eb: 0f 1f 44 00 00              	nopl	(%rax,%rax)

00000001000078f0 __ZNSt3__1eqIPiS1_EEbRKNS_11__wrap_iterIT_EERKNS2_IT0_EE:
1000078f0: 55                          	pushq	%rbp
1000078f1: 48 89 e5                    	movq	%rsp, %rbp
1000078f4: 48 83 ec 20                 	subq	$32, %rsp
1000078f8: 48 89 7d f8                 	movq	%rdi, -8(%rbp)
1000078fc: 48 89 75 f0                 	movq	%rsi, -16(%rbp)
100007900: 48 8b 7d f8                 	movq	-8(%rbp), %rdi
100007904: e8 27 00 00 00              	callq	39 <__ZNKSt3__111__wrap_iterIPiE4baseEv>
100007909: 48 8b 7d f0                 	movq	-16(%rbp), %rdi
10000790d: 48 89 45 e8                 	movq	%rax, -24(%rbp)
100007911: e8 1a 00 00 00              	callq	26 <__ZNKSt3__111__wrap_iterIPiE4baseEv>
100007916: 48 8b 4d e8                 	movq	-24(%rbp), %rcx
10000791a: 48 39 c1                    	cmpq	%rax, %rcx
10000791d: 0f 94 c2                    	sete	%dl
100007920: 80 e2 01                    	andb	$1, %dl
100007923: 0f b6 c2                    	movzbl	%dl, %eax
100007926: 48 83 c4 20                 	addq	$32, %rsp
10000792a: 5d                          	popq	%rbp
10000792b: c3                          	retq
10000792c: 0f 1f 40 00                 	nopl	(%rax)

0000000100007930 __ZNKSt3__111__wrap_iterIPiE4baseEv:
100007930: 55                          	pushq	%rbp
100007931: 48 89 e5                    	movq	%rsp, %rbp
100007934: 48 89 7d f8                 	movq	%rdi, -8(%rbp)
100007938: 48 8b 45 f8                 	movq	-8(%rbp), %rax
10000793c: 48 8b 00                    	movq	(%rax), %rax
10000793f: 5d                          	popq	%rbp
100007940: c3                          	retq

Disassembly of section __TEXT,__stubs:

0000000100007942 __stubs:
100007942: ff 25 b8 46 00 00           	jmpq	*18104(%rip)
100007948: ff 25 ba 46 00 00           	jmpq	*18106(%rip)
10000794e: ff 25 bc 46 00 00           	jmpq	*18108(%rip)
100007954: ff 25 be 46 00 00           	jmpq	*18110(%rip)
10000795a: ff 25 c0 46 00 00           	jmpq	*18112(%rip)
100007960: ff 25 c2 46 00 00           	jmpq	*18114(%rip)
100007966: ff 25 c4 46 00 00           	jmpq	*18116(%rip)
10000796c: ff 25 c6 46 00 00           	jmpq	*18118(%rip)
100007972: ff 25 c8 46 00 00           	jmpq	*18120(%rip)
100007978: ff 25 ca 46 00 00           	jmpq	*18122(%rip)
10000797e: ff 25 cc 46 00 00           	jmpq	*18124(%rip)
100007984: ff 25 ce 46 00 00           	jmpq	*18126(%rip)
10000798a: ff 25 d0 46 00 00           	jmpq	*18128(%rip)
100007990: ff 25 d2 46 00 00           	jmpq	*18130(%rip)
100007996: ff 25 d4 46 00 00           	jmpq	*18132(%rip)
10000799c: ff 25 d6 46 00 00           	jmpq	*18134(%rip)
1000079a2: ff 25 d8 46 00 00           	jmpq	*18136(%rip)
1000079a8: ff 25 da 46 00 00           	jmpq	*18138(%rip)
1000079ae: ff 25 dc 46 00 00           	jmpq	*18140(%rip)
1000079b4: ff 25 de 46 00 00           	jmpq	*18142(%rip)
1000079ba: ff 25 e0 46 00 00           	jmpq	*18144(%rip)
1000079c0: ff 25 e2 46 00 00           	jmpq	*18146(%rip)
1000079c6: ff 25 e4 46 00 00           	jmpq	*18148(%rip)
1000079cc: ff 25 e6 46 00 00           	jmpq	*18150(%rip)
1000079d2: ff 25 e8 46 00 00           	jmpq	*18152(%rip)
1000079d8: ff 25 ea 46 00 00           	jmpq	*18154(%rip)
1000079de: ff 25 ec 46 00 00           	jmpq	*18156(%rip)
1000079e4: ff 25 ee 46 00 00           	jmpq	*18158(%rip)
1000079ea: ff 25 f0 46 00 00           	jmpq	*18160(%rip)
1000079f0: ff 25 f2 46 00 00           	jmpq	*18162(%rip)
1000079f6: ff 25 f4 46 00 00           	jmpq	*18164(%rip)
1000079fc: ff 25 f6 46 00 00           	jmpq	*18166(%rip)
100007a02: ff 25 f8 46 00 00           	jmpq	*18168(%rip)
100007a08: ff 25 fa 46 00 00           	jmpq	*18170(%rip)
100007a0e: ff 25 fc 46 00 00           	jmpq	*18172(%rip)
100007a14: ff 25 fe 46 00 00           	jmpq	*18174(%rip)
100007a1a: ff 25 00 47 00 00           	jmpq	*18176(%rip)
100007a20: ff 25 02 47 00 00           	jmpq	*18178(%rip)
100007a26: ff 25 04 47 00 00           	jmpq	*18180(%rip)
100007a2c: ff 25 06 47 00 00           	jmpq	*18182(%rip)
100007a32: ff 25 08 47 00 00           	jmpq	*18184(%rip)
100007a38: ff 25 0a 47 00 00           	jmpq	*18186(%rip)
100007a3e: ff 25 0c 47 00 00           	jmpq	*18188(%rip)

Disassembly of section __TEXT,__stub_helper:

0000000100007a44 __stub_helper:
100007a44: 4c 8d 1d 0d 47 00 00        	leaq	18189(%rip), %r11
100007a4b: 41 53                       	pushq	%r11
100007a4d: ff 25 e5 05 00 00           	jmpq	*1509(%rip)
100007a53: 90                          	nop
100007a54: 68 16 00 00 00              	pushq	$22
100007a59: e9 e6 ff ff ff              	jmp	-26 <__stub_helper>
100007a5e: 68 5c 00 00 00              	pushq	$92
100007a63: e9 dc ff ff ff              	jmp	-36 <__stub_helper>
100007a68: 68 89 00 00 00              	pushq	$137
100007a6d: e9 d2 ff ff ff              	jmp	-46 <__stub_helper>
100007a72: 68 ad 00 00 00              	pushq	$173
100007a77: e9 c8 ff ff ff              	jmp	-56 <__stub_helper>
100007a7c: 68 cd 00 00 00              	pushq	$205
100007a81: e9 be ff ff ff              	jmp	-66 <__stub_helper>
100007a86: 68 1e 01 00 00              	pushq	$286
100007a8b: e9 b4 ff ff ff              	jmp	-76 <__stub_helper>
100007a90: 68 69 01 00 00              	pushq	$361
100007a95: e9 aa ff ff ff              	jmp	-86 <__stub_helper>
100007a9a: 68 a6 01 00 00              	pushq	$422
100007a9f: e9 a0 ff ff ff              	jmp	-96 <__stub_helper>
100007aa4: 68 e5 01 00 00              	pushq	$485
100007aa9: e9 96 ff ff ff              	jmp	-106 <__stub_helper>
100007aae: 68 2a 02 00 00              	pushq	$554
100007ab3: e9 8c ff ff ff              	jmp	-116 <__stub_helper>
100007ab8: 68 6c 02 00 00              	pushq	$620
100007abd: e9 82 ff ff ff              	jmp	-126 <__stub_helper>
100007ac2: 68 a8 02 00 00              	pushq	$680
100007ac7: e9 78 ff ff ff              	jmp	-136 <__stub_helper>
100007acc: 68 c5 02 00 00              	pushq	$709
100007ad1: e9 6e ff ff ff              	jmp	-146 <__stub_helper>
100007ad6: 68 05 03 00 00              	pushq	$773
100007adb: e9 64 ff ff ff              	jmp	-156 <__stub_helper>
100007ae0: 68 28 03 00 00              	pushq	$808
100007ae5: e9 5a ff ff ff              	jmp	-166 <__stub_helper>
100007aea: 68 40 03 00 00              	pushq	$832
100007aef: e9 50 ff ff ff              	jmp	-176 <__stub_helper>
100007af4: 68 61 03 00 00              	pushq	$865
100007af9: e9 46 ff ff ff              	jmp	-186 <__stub_helper>
100007afe: 68 7b 03 00 00              	pushq	$891
100007b03: e9 3c ff ff ff              	jmp	-196 <__stub_helper>
100007b08: 68 99 03 00 00              	pushq	$921
100007b0d: e9 32 ff ff ff              	jmp	-206 <__stub_helper>
100007b12: 68 b1 03 00 00              	pushq	$945
100007b17: e9 28 ff ff ff              	jmp	-216 <__stub_helper>
100007b1c: 68 ce 03 00 00              	pushq	$974
100007b21: e9 1e ff ff ff              	jmp	-226 <__stub_helper>
100007b26: 68 00 00 00 00              	pushq	$0
100007b2b: e9 14 ff ff ff              	jmp	-236 <__stub_helper>
100007b30: 68 e2 03 00 00              	pushq	$994
100007b35: e9 0a ff ff ff              	jmp	-246 <__stub_helper>
100007b3a: 68 fb 03 00 00              	pushq	$1019
100007b3f: e9 00 ff ff ff              	jmp	-256 <__stub_helper>
100007b44: 68 0f 04 00 00              	pushq	$1039
100007b49: e9 f6 fe ff ff              	jmp	-266 <__stub_helper>
100007b4e: 68 1e 04 00 00              	pushq	$1054
100007b53: e9 ec fe ff ff              	jmp	-276 <__stub_helper>
100007b58: 68 2d 04 00 00              	pushq	$1069
100007b5d: e9 e2 fe ff ff              	jmp	-286 <__stub_helper>
